gplink-2.2.21 (Aug 12 2020)
Listing File Generated: 2021-7-28  17:22:57
 
 
Address  Value    Disassembly              Source
-------  -----    -----------              ------
                                           ;--------------------------------------------------------
                                           ; external declarations
                                           ;--------------------------------------------------------
                                           	extern	_TIMER0_INT_Init
                                           	extern	_TIMER1_PWM_Init
                                           	extern	_ADC_Get_Value
                                           	extern	_led_set
                                           	extern	_HIBYTEbits
                                           	extern	_FSR0bits
                                           	extern	_FSR1bits
                                           	extern	_PFLAGbits
                                           	extern	_ANSELbits
                                           	extern	_VREFbits
                                           	extern	_ADCRbits
                                           	extern	_ADRHbits
                                           	extern	_ADRLbits
                                           	extern	_OEP0bits
                                           	extern	_PEDGEbits
                                           	extern	_OEP4bits
                                           	extern	_OEP5bits
                                           	extern	_INTFbits
                                           	extern	_INTEbits
                                           	extern	_OSCMbits
                                           	extern	_WDTRbits
                                           	extern	_T0Dbits
                                           	extern	_PCLbits
                                           	extern	_PCHbits
                                           	extern	_IOP0bits
                                           	extern	_IOP4bits
                                           	extern	_IOP5bits
                                           	extern	_TXCRbits
                                           	extern	_T0CRbits
                                           	extern	_T0Cbits
                                           	extern	_T1CRbits
                                           	extern	_T1Cbits
                                           	extern	_T1Dbits
                                           	extern	_STKPbits
                                           	extern	_PUP0bits
                                           	extern	_PUP4bits
                                           	extern	_PUP5bits
                                           	extern	_INDFbits
                                           	extern	_T2CRbits
                                           	extern	_T2Cbits
                                           	extern	_T2Dbits
                                           	extern	_HIBYTE
                                           	extern	_FSR0
                                           	extern	_FSR1
                                           	extern	_PFLAG
                                           	extern	_ANSEL
                                           	extern	_VREF
                                           	extern	_ADCR
                                           	extern	_ADRH
                                           	extern	_ADRL
                                           	extern	_OEP0
                                           	extern	_PEDGE
                                           	extern	_OEP4
                                           	extern	_OEP5
                                           	extern	_INTF
                                           	extern	_INTE
                                           	extern	_OSCM
                                           	extern	_WDTR
                                           	extern	_T0D
                                           	extern	_PCL
                                           	extern	_PCH
                                           	extern	_IOP0
                                           	extern	_IOP4
                                           	extern	_IOP5
                                           	extern	_TXCR
                                           	extern	_T0CR
                                           	extern	_T0C
                                           	extern	_T1CR
                                           	extern	_T1C
                                           	extern	_T1D
                                           	extern	_STKP
                                           	extern	_PUP0
                                           	extern	_PUP4
                                           	extern	_PUP5
                                           	extern	_INDF
                                           	extern	_T2CR
                                           	extern	_T2C
                                           	extern	_T2D
                                           	extern	_STK3L
                                           	extern	_STK3H
                                           	extern	_STK2L
                                           	extern	_STK2H
                                           	extern	_STK1L
                                           	extern	_STK1H
                                           	extern	_STK0L
                                           	extern	_STK0H
                                           	extern	__mulchar
                                           ;--------------------------------------------------------
                                           ; global declarations
                                           ;--------------------------------------------------------
                                           	global	_ADC_Get_Value_Average
                                           	global	_Sys_Init
                                           	global	_ADC_Init
                                           	global	_IO_Init
                                           	global	_CLR_RAM
                                           	global	_TIMER2_INT_Init
                                           	global	_TIMER0_PWM_Init
                                           	global	_measure_bat_level
                                           	global	_delay_ms
                                           	global	_pwm_on_by_gear
                                           	global	_led_on
                                           	global	_led_on_by_gear
                                           	global	_led_on_by_bat
                                           	global	_fascia_gun_is_charging
                                           	global	_fascia_gun_on
                                           	global	_fascia_gun_off
                                           	global	_main
                                           	global	_int_isr
                                           	global	_timer0_count
                                           	global	_key_down_count
                                           	global	_key_press_count
                                           	global	_last_adc_tick
                                           	global	_last_switch_gear_tick
                                           	global	_gear
                                           	global	_bat_level
                                           	global	_IO_buff
                                           	global	_flag1
                                           	global	_adctmp
                                           
                                           	global STK06
                                           	global STK05
                                           	global STK04
                                           	global STK03
                                           	global STK02
                                           	global STK01
                                           	global STK00
                                           
                                           sharebank udata_ovr 0x0000
                                           STK06	res 1
                                           STK05	res 1
                                           STK04	res 1
                                           STK03	res 1
                                           STK02	res 1
                                           STK01	res 1
                                           STK00	res 1
                                           
                                           ;--------------------------------------------------------
                                           ; global definitions
                                           ;--------------------------------------------------------
                                           UD_MC32P7031_Demo_C_0	udata
                                           _timer0_count	res	4
                                           
                                           UD_MC32P7031_Demo_C_1	udata
                                           _key_down_count	res	4
                                           
                                           UD_MC32P7031_Demo_C_2	udata
                                           _key_press_count	res	4
                                           
                                           UD_MC32P7031_Demo_C_3	udata
                                           _last_adc_tick	res	4
                                           
                                           UD_MC32P7031_Demo_C_4	udata
                                           _last_switch_gear_tick	res	4
                                           
                                           UD_MC32P7031_Demo_C_5	udata
                                           _gear	res	1
                                           
                                           UD_MC32P7031_Demo_C_6	udata
                                           _bat_level	res	1
                                           
                                           UD_MC32P7031_Demo_C_7	udata
                                           _IO_buff	res	1
                                           
                                           UD_MC32P7031_Demo_C_8	udata
                                           _flag1	res	1
                                           
                                           UD_MC32P7031_Demo_C_9	udata
                                           _adctmp	res	2
                                           
                                           ;--------------------------------------------------------
                                           ; absolute symbol definitions
                                           ;--------------------------------------------------------
                                           ;--------------------------------------------------------
                                           ; compiler-defined variables
                                           ;--------------------------------------------------------
                                           UDL_MC32P7031_Demo_C_0	udata
                                           r0x101A	res	1
                                           r0x101B	res	1
                                           r0x101C	res	1
                                           r0x101D	res	1
                                           r0x101E	res	1
                                           r0x101F	res	1
                                           r0x1020	res	1
                                           r0x1021	res	1
                                           r0x1022	res	1
                                           r0x1023	res	1
                                           r0x1024	res	1
                                           r0x1025	res	1
                                           r0x1026	res	1
                                           r0x1027	res	1
                                           r0x1028	res	1
                                           r0x1029	res	1
                                           r0x102A	res	1
                                           r0x102B	res	1
                                           r0x102C	res	1
                                           r0x102D	res	1
                                           r0x102E	res	1
                                           r0x102F	res	1
                                           r0x1030	res	1
                                           r0x1031	res	1
                                           r0x1032	res	1
                                           r0x1033	res	1
                                           ;--------------------------------------------------------
                                           ; initialized data
                                           ;--------------------------------------------------------
                                           
                                           ;@Allocation info for local variables in function 'CLR_RAM'
                                           ;@CLR_RAM IO_Init                   Allocated to registers ;size:2
                                           ;@CLR_RAM TIMER0_INT_Init           Allocated to registers ;size:2
                                           ;@CLR_RAM TIMER1_PWM_Init           Allocated to registers ;size:2
                                           ;@CLR_RAM ADC_Init                  Allocated to registers ;size:2
                                           ;@CLR_RAM Sys_Init                  Allocated to registers ;size:2
                                           ;@CLR_RAM ADC_Get_Value             Allocated to registers ;size:2
                                           ;@CLR_RAM ADC_Get_Value_Average     Allocated to registers ;size:2
                                           ;@CLR_RAM led_set                   Allocated to registers ;size:2
                                           ;@CLR_RAM HIBYTEbits                Allocated to registers ;size:1
                                           ;@CLR_RAM FSR0bits                  Allocated to registers ;size:1
                                           ;@CLR_RAM FSR1bits                  Allocated to registers ;size:1
                                           ;@CLR_RAM PFLAGbits                 Allocated to registers ;size:1
                                           ;@CLR_RAM ANSELbits                 Allocated to registers ;size:1
                                           ;@CLR_RAM VREFbits                  Allocated to registers ;size:1
                                           ;@CLR_RAM ADCRbits                  Allocated to registers ;size:1
                                           ;@CLR_RAM ADRHbits                  Allocated to registers ;size:1
                                           ;@CLR_RAM ADRLbits                  Allocated to registers ;size:1
                                           ;@CLR_RAM OEP0bits                  Allocated to registers ;size:1
                                           ;@CLR_RAM PEDGEbits                 Allocated to registers ;size:1
                                           ;@CLR_RAM OEP4bits                  Allocated to registers ;size:1
                                           ;@CLR_RAM OEP5bits                  Allocated to registers ;size:1
                                           ;@CLR_RAM INTFbits                  Allocated to registers ;size:1
                                           ;@CLR_RAM INTEbits                  Allocated to registers ;size:1
                                           ;@CLR_RAM OSCMbits                  Allocated to registers ;size:1
                                           ;@CLR_RAM WDTRbits                  Allocated to registers ;size:1
                                           ;@CLR_RAM T0Dbits                   Allocated to registers ;size:1
                                           ;@CLR_RAM PCLbits                   Allocated to registers ;size:1
                                           ;@CLR_RAM PCHbits                   Allocated to registers ;size:1
                                           ;@CLR_RAM IOP0bits                  Allocated to registers ;size:1
                                           ;@CLR_RAM IOP4bits                  Allocated to registers ;size:1
                                           ;@CLR_RAM IOP5bits                  Allocated to registers ;size:1
                                           ;@CLR_RAM TXCRbits                  Allocated to registers ;size:1
                                           ;@CLR_RAM T0CRbits                  Allocated to registers ;size:1
                                           ;@CLR_RAM T0Cbits                   Allocated to registers ;size:1
                                           ;@CLR_RAM T1CRbits                  Allocated to registers ;size:1
                                           ;@CLR_RAM T1Cbits                   Allocated to registers ;size:1
                                           ;@CLR_RAM T1Dbits                   Allocated to registers ;size:1
                                           ;@CLR_RAM STKPbits                  Allocated to registers ;size:1
                                           ;@CLR_RAM PUP0bits                  Allocated to registers ;size:1
                                           ;@CLR_RAM PUP4bits                  Allocated to registers ;size:1
                                           ;@CLR_RAM PUP5bits                  Allocated to registers ;size:1
                                           ;@CLR_RAM INDFbits                  Allocated to registers ;size:1
                                           ;@CLR_RAM T2CRbits                  Allocated to registers ;size:1
                                           ;@CLR_RAM T2Cbits                   Allocated to registers ;size:1
                                           ;@CLR_RAM T2Dbits                   Allocated to registers ;size:1
                                           ;@CLR_RAM timer0_count              Allocated to registers ;size:4
                                           ;@CLR_RAM key_down_count            Allocated to registers ;size:4
                                           ;@CLR_RAM key_press_count           Allocated to registers ;size:4
                                           ;@CLR_RAM last_adc_tick             Allocated to registers ;size:4
                                           ;@CLR_RAM last_switch_gear_tick     Allocated to registers ;size:4
                                           ;@CLR_RAM gear                      Allocated to registers ;size:1
                                           ;@CLR_RAM bat_level                 Allocated to registers ;size:1
                                           ;@CLR_RAM IO_buff                   Allocated to registers ;size:1
                                           ;@CLR_RAM flag1                     Allocated to registers ;size:1
                                           ;@CLR_RAM HIBYTE                    Allocated to registers ;size:1
                                           ;@CLR_RAM FSR0                      Allocated to registers ;size:1
                                           ;@CLR_RAM FSR1                      Allocated to registers ;size:1
                                           ;@CLR_RAM PFLAG                     Allocated to registers ;size:1
                                           ;@CLR_RAM ANSEL                     Allocated to registers ;size:1
                                           ;@CLR_RAM VREF                      Allocated to registers ;size:1
                                           ;@CLR_RAM ADCR                      Allocated to registers ;size:1
                                           ;@CLR_RAM ADRH                      Allocated to registers ;size:1
                                           ;@CLR_RAM ADRL                      Allocated to registers ;size:1
                                           ;@CLR_RAM OEP0                      Allocated to registers ;size:1
                                           ;@CLR_RAM PEDGE                     Allocated to registers ;size:1
                                           ;@CLR_RAM OEP4                      Allocated to registers ;size:1
                                           ;@CLR_RAM OEP5                      Allocated to registers ;size:1
                                           ;@CLR_RAM INTF                      Allocated to registers ;size:1
                                           ;@CLR_RAM INTE                      Allocated to registers ;size:1
                                           ;@CLR_RAM OSCM                      Allocated to registers ;size:1
                                           ;@CLR_RAM WDTR                      Allocated to registers ;size:1
                                           ;@CLR_RAM T0D                       Allocated to registers ;size:1
                                           ;@CLR_RAM PCL                       Allocated to registers ;size:1
                                           ;@CLR_RAM PCH                       Allocated to registers ;size:1
                                           ;@CLR_RAM IOP0                      Allocated to registers ;size:1
                                           ;@CLR_RAM IOP4                      Allocated to registers ;size:1
                                           ;@CLR_RAM IOP5                      Allocated to registers ;size:1
                                           ;@CLR_RAM TXCR                      Allocated to registers ;size:1
                                           ;@CLR_RAM T0CR                      Allocated to registers ;size:1
                                           ;@CLR_RAM T0C                       Allocated to registers ;size:1
                                           ;@CLR_RAM T1CR                      Allocated to registers ;size:1
                                           ;@CLR_RAM T1C                       Allocated to registers ;size:1
                                           ;@CLR_RAM T1D                       Allocated to registers ;size:1
                                           ;@CLR_RAM STKP                      Allocated to registers ;size:1
                                           ;@CLR_RAM PUP0                      Allocated to registers ;size:1
                                           ;@CLR_RAM PUP4                      Allocated to registers ;size:1
                                           ;@CLR_RAM PUP5                      Allocated to registers ;size:1
                                           ;@CLR_RAM INDF                      Allocated to registers ;size:1
                                           ;@CLR_RAM T2CR                      Allocated to registers ;size:1
                                           ;@CLR_RAM T2C                       Allocated to registers ;size:1
                                           ;@CLR_RAM T2D                       Allocated to registers ;size:1
                                           ;@CLR_RAM STK3L                     Allocated to registers ;size:1
                                           ;@CLR_RAM STK3H                     Allocated to registers ;size:1
                                           ;@CLR_RAM STK2L                     Allocated to registers ;size:1
                                           ;@CLR_RAM STK2H                     Allocated to registers ;size:1
                                           ;@CLR_RAM STK1L                     Allocated to registers ;size:1
                                           ;@CLR_RAM STK1H                     Allocated to registers ;size:1
                                           ;@CLR_RAM STK0L                     Allocated to registers ;size:1
                                           ;@CLR_RAM STK0H                     Allocated to registers ;size:1
                                           ;@end Allocation info for local variables in function 'CLR_RAM';
                                           ;@Allocation info for local variables in function 'IO_Init'
                                           ;@end Allocation info for local variables in function 'IO_Init';
                                           ;@Allocation info for local variables in function 'TIMER2_INT_Init'
                                           ;@end Allocation info for local variables in function 'TIMER2_INT_Init';
                                           ;@Allocation info for local variables in function 'TIMER0_PWM_Init'
                                           ;@end Allocation info for local variables in function 'TIMER0_PWM_Init';
                                           ;@Allocation info for local variables in function 'ADC_Init'
                                           ;@end Allocation info for local variables in function 'ADC_Init';
                                           ;@Allocation info for local variables in function 'Sys_Init'
                                           ;@end Allocation info for local variables in function 'Sys_Init';
                                           ;@Allocation info for local variables in function 'ADC_Get_Value_Average'
                                           ;@ADC_Get_Value_Average CHX                       Allocated to registers r0x101A ;size:1
                                           ;@ADC_Get_Value_Average channel                   Allocated to registers r0x101A ;size:1
                                           ;@ADC_Get_Value_Average tmpBuff                   Allocated to registers r0x101F r0x1020 r0x1026 r0x1027 ;size:4
                                           ;@ADC_Get_Value_Average ADCMAX                    Allocated to registers r0x101F r0x1020 ;size:2
                                           ;@ADC_Get_Value_Average ADCMIN                    Allocated to registers r0x1021 r0x1022 ;size:2
                                           ;@end Allocation info for local variables in function 'ADC_Get_Value_Average';
                                           ;@Allocation info for local variables in function 'measure_bat_level'
                                           ;@end Allocation info for local variables in function 'measure_bat_level';
                                           ;@Allocation info for local variables in function 'delay_ms'
                                           ;@delay_ms ms                        Allocated to registers r0x101B r0x101A ;size:2
                                           ;@delay_ms start                     Allocated to registers r0x101C r0x101D r0x101E r0x101F ;size:4
                                           ;@end Allocation info for local variables in function 'delay_ms';
                                           ;@Allocation info for local variables in function 'pwm_on_by_gear'
                                           ;@pwm_on_by_gear gear                      Allocated to registers r0x101A ;size:1
                                           ;@end Allocation info for local variables in function 'pwm_on_by_gear';
                                           ;@Allocation info for local variables in function 'led_on'
                                           ;@led_on onoff                     Allocated to registers r0x101B ;size:1
                                           ;@led_on n                         Allocated to registers r0x101A ;size:1
                                           ;@end Allocation info for local variables in function 'led_on';
                                           ;@Allocation info for local variables in function 'led_on_by_gear'
                                           ;@led_on_by_gear n                         Allocated to registers r0x101C ;size:1
                                           ;@led_on_by_gear i                         Allocated to registers r0x101D r0x101E ;size:2
                                           ;@led_on_by_gear i                         Allocated to registers r0x101D r0x101E ;size:2
                                           ;@end Allocation info for local variables in function 'led_on_by_gear';
                                           ;@Allocation info for local variables in function 'led_on_by_bat'
                                           ;@led_on_by_bat n                         Allocated to registers r0x1028 ;size:1
                                           ;@led_on_by_bat i                         Allocated to registers ;size:2
                                           ;@led_on_by_bat i                         Allocated to registers r0x102C r0x102D ;size:2
                                           ;@led_on_by_bat i                         Allocated to registers r0x1028 r0x1029 ;size:2
                                           ;@end Allocation info for local variables in function 'led_on_by_bat';
                                           ;@Allocation info for local variables in function 'fascia_gun_is_charging'
                                           ;@end Allocation info for local variables in function 'fascia_gun_is_charging';
                                           ;@Allocation info for local variables in function 'fascia_gun_on'
                                           ;@end Allocation info for local variables in function 'fascia_gun_on';
                                           ;@Allocation info for local variables in function 'fascia_gun_off'
                                           ;@end Allocation info for local variables in function 'fascia_gun_off';
                                           ;@Allocation info for local variables in function 'main'
                                           ;@main i                         Allocated to registers r0x1030 r0x1031 ;size:2
                                           ;@main i                         Allocated to registers r0x1030 r0x1031 ;size:2
                                           ;@end Allocation info for local variables in function 'main';
                                           ;@Allocation info for local variables in function 'int_isr'
                                           ;@end Allocation info for local variables in function 'int_isr';
                                           
                                           ;--------------------------------------------------------
                                           ; overlayable items in internal ram 
                                           ;--------------------------------------------------------
                                           ;	udata_ovr
                                           ;--------------------------------------------------------
                                           ; reset vector 
                                           ;--------------------------------------------------------
                                           STARTUP	code 0x0000
000000   801d     goto    0x1d             	goto	_main
                                           ;--------------------------------------------------------
                                           ; interrupt and initialization code
                                           ;--------------------------------------------------------
                                           c_interrupt	code	0x8
                                           __sdcc_interrupt
                                           ;***
                                           ;  pBlock Stats: dbName = I
                                           ;***
                                           ;entry:  _int_isr	;Function start
                                           ; 0 exit points
                                           ;; Starting pCode block
                                           _int_isr	;Function start
                                           ; 0 exit points
                                           ;	.line	494; "MC32P7031_Demo_C.c"	__endasm;
000008   0400     push                     	push
                                           	
                                           ;	.line	496; "MC32P7031_Demo_C.c"	if (T2IF && T2IE)
000009   5cc8     jbset   0xc8, 0x4        	JBSET	_INTFbits,4
00000a   8016     goto    0x16             	GOTO	_00551_DS_
00000b   5cc9     jbset   0xc9, 0x4        	JBSET	_INTEbits,4
00000c   8016     goto    0x16             	GOTO	_00551_DS_
                                           ;	.line	498; "MC32P7031_Demo_C.c"	T2IF = 0;
00000d   44c8     bclr    0xc8, 0x4        	BCLR	_INTFbits,4
                                           ;	.line	499; "MC32P7031_Demo_C.c"	timer0_count++;
00000e   2d01     movai   0x1              	MOVAI	0x01
00000f   1326     addra   0x26             	ADDRA	_timer0_count
000010   5086     jbclr   0x86, 0          	JBCLR	PFLAG,0
000011   1327     addra   0x27             	ADDRA	(_timer0_count + 1)
000012   5086     jbclr   0x86, 0          	JBCLR	PFLAG,0
000013   1328     addra   0x28             	ADDRA	(_timer0_count + 2)
000014   5086     jbclr   0x86, 0          	JBCLR	PFLAG,0
000015   1329     addra   0x29             	ADDRA	(_timer0_count + 3)
                                           _00551_DS_
                                           ;	.line	503; "MC32P7031_Demo_C.c"	if (ADIF && ADIE)
000016   5fc8     jbset   0xc8, 0x7        	JBSET	_INTFbits,7
000017   801b     goto    0x1b             	GOTO	_00554_DS_
000018   5fc9     jbset   0xc9, 0x7        	JBSET	_INTEbits,7
000019   801b     goto    0x1b             	GOTO	_00554_DS_
                                           ;	.line	505; "MC32P7031_Demo_C.c"	ADIF = 0;
00001a   47c8     bclr    0xc8, 0x7        	BCLR	_INTFbits,7
                                           _00554_DS_
                                           ;	.line	510; "MC32P7031_Demo_C.c"	__endasm;
00001b   0500     pop                      	pop
                                           	
                                           END_OF_INTERRUPT
                                           ;	.line	511; "MC32P7031_Demo_C.c"	}
00001c   0f00     retie                    	RETIE	
                                           
                                           ;--------------------------------------------------------
                                           ; code
                                           ;--------------------------------------------------------
                                           code_MC32P7031_Demo_C	code
                                           ;***
                                           ;  pBlock Stats: dbName = M
                                           ;***
                                           ;entry:  _main	;Function start
                                           ; 2 exit points
                                           ;has an exit
                                           ;functions called:
                                           ;   _Sys_Init
                                           ;   _fascia_gun_is_charging
                                           ;   _fascia_gun_off
                                           ;   _measure_bat_level
                                           ;   _led_on_by_bat
                                           ;   _fascia_gun_off
                                           ;   _fascia_gun_off
                                           ;   _fascia_gun_on
                                           ;   _measure_bat_level
                                           ;   _fascia_gun_off
                                           ;   _led_on_by_gear
                                           ;   _pwm_on_by_gear
                                           ;   _measure_bat_level
                                           ;   _fascia_gun_off
                                           ;   _led_on
                                           ;   _delay_ms
                                           ;   _led_on
                                           ;   _delay_ms
                                           ;   _Sys_Init
                                           ;   _fascia_gun_is_charging
                                           ;   _fascia_gun_off
                                           ;   _measure_bat_level
                                           ;   _led_on_by_bat
                                           ;   _fascia_gun_off
                                           ;   _fascia_gun_off
                                           ;   _fascia_gun_on
                                           ;   _measure_bat_level
                                           ;   _fascia_gun_off
                                           ;   _led_on_by_gear
                                           ;   _pwm_on_by_gear
                                           ;   _measure_bat_level
                                           ;   _fascia_gun_off
                                           ;   _led_on
                                           ;   _delay_ms
                                           ;   _led_on
                                           ;   _delay_ms
                                           ;5 compiler assigned registers:
                                           ;   r0x1030
                                           ;   r0x1031
                                           ;   r0x1032
                                           ;   r0x1033
                                           ;   STK00
                                           ;; Starting pCode block
                                           _main	;Function start
                                           ; 2 exit points
                                           ;	.line	371; "MC32P7031_Demo_C.c"	Sys_Init();
00001d   c443     call    0x443            	CALL	_Sys_Init
                                           _00421_DS_
                                           ;	.line	375; "MC32P7031_Demo_C.c"	if(fascia_gun_is_charging()) {
00001e   c1d3     call    0x1d3            	CALL	_fascia_gun_is_charging
00001f   1f1d     movra   0x1d             	MOVRA	r0x1030
000020   2d00     movai   0                	MOVAI	0x00
000021   181d     orar    0x1d             	ORAR	r0x1030
000022   5086     jbclr   0x86, 0          	JBCLR	PFLAG,0
000023   802f     goto    0x2f             	GOTO	_00418_DS_
                                           ;	.line	376; "MC32P7031_Demo_C.c"	FLAG_CHARGING = 1;
000024   4b3f     bset    0x3f, 0x3        	BSET	_flag1,3
                                           ;	.line	379; "MC32P7031_Demo_C.c"	if (gear > 0) {
000025   2d00     movai   0                	MOVAI	0x00
000026   183c     orar    0x3c             	ORAR	_gear
000027   5086     jbclr   0x86, 0          	JBCLR	PFLAG,0
000028   802a     goto    0x2a             	GOTO	_00377_DS_
                                           ;	.line	380; "MC32P7031_Demo_C.c"	fascia_gun_off();
000029   c1bb     call    0x1bb            	CALL	_fascia_gun_off
                                           _00377_DS_
                                           ;	.line	384; "MC32P7031_Demo_C.c"	bat_level = measure_bat_level();
00002a   c324     call    0x324            	CALL	_measure_bat_level
00002b   1f3d     movra   0x3d             	MOVRA	_bat_level
                                           ;	.line	387; "MC32P7031_Demo_C.c"	led_on_by_bat(bat_level);
00002c   1e3d     movar   0x3d             	MOVAR	_bat_level
00002d   c1db     call    0x1db            	CALL	_led_on_by_bat
00002e   801e     goto    0x1e             	GOTO	_00421_DS_
                                           _00418_DS_
                                           ;	.line	392; "MC32P7031_Demo_C.c"	if (FLAG_CHARGING) {
00002f   5b3f     jbset   0x3f, 0x3        	JBSET	_flag1,3
000030   8033     goto    0x33             	GOTO	_00379_DS_
                                           ;	.line	393; "MC32P7031_Demo_C.c"	fascia_gun_off();
000031   c1bb     call    0x1bb            	CALL	_fascia_gun_off
                                           ;	.line	394; "MC32P7031_Demo_C.c"	FLAG_CHARGING = 0;
000032   433f     bclr    0x3f, 0x3        	BCLR	_flag1,3
                                           ;;gen.c:6651: size=0, offset=0, AOP_TYPE(res)=8
                                           _00379_DS_
                                           ;	.line	399; "MC32P7031_Demo_C.c"	IO_buff.byte = IOP0;
000033   1ed0     movar   0xd0             	MOVAR	_IOP0
000034   1f3e     movra   0x3e             	MOVRA	(_IO_buff + 0)
                                           ;	.line	400; "MC32P7031_Demo_C.c"	if (IO_BIT1 == 0) {
000035   513e     jbclr   0x3e, 0x1        	JBCLR	_IO_buff,1
000036   8081     goto    0x81             	GOTO	_00391_DS_
                                           ;	.line	401; "MC32P7031_Demo_C.c"	if (key_down_count == 0) {
000037   1e2a     movar   0x2a             	MOVAR	_key_down_count
000038   182b     orar    0x2b             	ORAR	(_key_down_count + 1)
000039   182c     orar    0x2c             	ORAR	(_key_down_count + 2)
00003a   182d     orar    0x2d             	ORAR	(_key_down_count + 3)
00003b   5886     jbset   0x86, 0          	JBSET	PFLAG,0
00003c   8046     goto    0x46             	GOTO	_00383_DS_
                                           ;	.line	402; "MC32P7031_Demo_C.c"	key_down_count = timer0_count;
00003d   1e26     movar   0x26             	MOVAR	_timer0_count
00003e   1f2a     movra   0x2a             	MOVRA	_key_down_count
00003f   1e27     movar   0x27             	MOVAR	(_timer0_count + 1)
000040   1f2b     movra   0x2b             	MOVRA	(_key_down_count + 1)
000041   1e28     movar   0x28             	MOVAR	(_timer0_count + 2)
000042   1f2c     movra   0x2c             	MOVRA	(_key_down_count + 2)
000043   1e29     movar   0x29             	MOVAR	(_timer0_count + 3)
000044   1f2d     movra   0x2d             	MOVRA	(_key_down_count + 3)
000045   80dd     goto    0xdd             	GOTO	_00392_DS_
                                           _00383_DS_
                                           ;	.line	404; "MC32P7031_Demo_C.c"	key_press_count = timer0_count - key_down_count;
000046   1e2a     movar   0x2a             	MOVAR	_key_down_count
000047   2c26     xch     0x26             	XCH	_timer0_count
000048   2326     asubra  0x26             	ASUBRA	_timer0_count
000049   2c26     xch     0x26             	XCH	_timer0_count
00004a   1f2e     movra   0x2e             	MOVRA	_key_press_count
00004b   1e2b     movar   0x2b             	MOVAR	(_key_down_count + 1)
00004c   5a86     jbset   0x86, 0x2        	JBSET	PFLAG,2
00004d   152b     jzar    0x2b             	JZAR	(_key_down_count + 1)
00004e   8051     goto    0x51             	GOTO	_00529_DS_
00004f   1e27     movar   0x27             	MOVAR	(_timer0_count + 1)
000050   8054     goto    0x54             	GOTO	_00530_DS_
                                           _00529_DS_
000051   2c27     xch     0x27             	XCH	(_timer0_count + 1)
000052   2327     asubra  0x27             	ASUBRA	(_timer0_count + 1)
000053   2c27     xch     0x27             	XCH	(_timer0_count + 1)
                                           _00530_DS_
000054   1f2f     movra   0x2f             	MOVRA	(_key_press_count + 1)
000055   1e2c     movar   0x2c             	MOVAR	(_key_down_count + 2)
000056   5a86     jbset   0x86, 0x2        	JBSET	PFLAG,2
000057   152c     jzar    0x2c             	JZAR	(_key_down_count + 2)
000058   805b     goto    0x5b             	GOTO	_00531_DS_
000059   1e28     movar   0x28             	MOVAR	(_timer0_count + 2)
00005a   805e     goto    0x5e             	GOTO	_00532_DS_
                                           _00531_DS_
00005b   2c28     xch     0x28             	XCH	(_timer0_count + 2)
00005c   2328     asubra  0x28             	ASUBRA	(_timer0_count + 2)
00005d   2c28     xch     0x28             	XCH	(_timer0_count + 2)
                                           _00532_DS_
00005e   1f30     movra   0x30             	MOVRA	(_key_press_count + 2)
00005f   1e2d     movar   0x2d             	MOVAR	(_key_down_count + 3)
000060   5a86     jbset   0x86, 0x2        	JBSET	PFLAG,2
000061   152d     jzar    0x2d             	JZAR	(_key_down_count + 3)
000062   0000     nop                      	NOP	
000063   2c29     xch     0x29             	XCH	(_timer0_count + 3)
000064   2329     asubra  0x29             	ASUBRA	(_timer0_count + 3)
000065   2c29     xch     0x29             	XCH	(_timer0_count + 3)
000066   1f31     movra   0x31             	MOVRA	(_key_press_count + 3)
                                           ;;swapping arguments (AOP_TYPEs 1/3)
                                           ;;unsigned compare: left >= lit(0x7D1=2001), size=4
                                           ;	.line	406; "MC32P7031_Demo_C.c"	if (key_press_count > 2000) {
000067   2d00     movai   0                	MOVAI	0x00
000068   2c31     xch     0x31             	XCH	(_key_press_count + 3)
000069   2331     asubra  0x31             	ASUBRA	(_key_press_count + 3)
00006a   2c31     xch     0x31             	XCH	(_key_press_count + 3)
00006b   5886     jbset   0x86, 0          	JBSET	PFLAG,0
00006c   807d     goto    0x7d             	GOTO	_00533_DS_
00006d   2d00     movai   0                	MOVAI	0x00
00006e   2c30     xch     0x30             	XCH	(_key_press_count + 2)
00006f   2330     asubra  0x30             	ASUBRA	(_key_press_count + 2)
000070   2c30     xch     0x30             	XCH	(_key_press_count + 2)
000071   5886     jbset   0x86, 0          	JBSET	PFLAG,0
000072   807d     goto    0x7d             	GOTO	_00533_DS_
000073   2d07     movai   0x7              	MOVAI	0x07
000074   2c2f     xch     0x2f             	XCH	(_key_press_count + 1)
000075   232f     asubra  0x2f             	ASUBRA	(_key_press_count + 1)
000076   2c2f     xch     0x2f             	XCH	(_key_press_count + 1)
000077   5886     jbset   0x86, 0          	JBSET	PFLAG,0
000078   807d     goto    0x7d             	GOTO	_00533_DS_
000079   2dd1     movai   0xd1             	MOVAI	0xd1
00007a   2c2e     xch     0x2e             	XCH	_key_press_count
00007b   232e     asubra  0x2e             	ASUBRA	_key_press_count
00007c   2c2e     xch     0x2e             	XCH	_key_press_count
                                           _00533_DS_
00007d   5a86     jbset   0x86, 0x2        	JBSET	PFLAG,2
00007e   80dd     goto    0xdd             	GOTO	_00392_DS_
                                           ;;genSkipc:3318: created from rifx:013B5EFC
                                           ;	.line	407; "MC32P7031_Demo_C.c"	FLAG_KEY_LONG = 1;
00007f   4a3f     bset    0x3f, 0x2        	BSET	_flag1,2
000080   80dd     goto    0xdd             	GOTO	_00392_DS_
                                           _00391_DS_
                                           ;	.line	411; "MC32P7031_Demo_C.c"	if (key_down_count > 0) {
000081   1e2a     movar   0x2a             	MOVAR	_key_down_count
000082   182b     orar    0x2b             	ORAR	(_key_down_count + 1)
000083   182c     orar    0x2c             	ORAR	(_key_down_count + 2)
000084   182d     orar    0x2d             	ORAR	(_key_down_count + 3)
000085   5086     jbclr   0x86, 0          	JBCLR	PFLAG,0
000086   80dd     goto    0xdd             	GOTO	_00392_DS_
                                           ;	.line	412; "MC32P7031_Demo_C.c"	key_press_count = timer0_count - key_down_count;
000087   1e2a     movar   0x2a             	MOVAR	_key_down_count
000088   2c26     xch     0x26             	XCH	_timer0_count
000089   2326     asubra  0x26             	ASUBRA	_timer0_count
00008a   2c26     xch     0x26             	XCH	_timer0_count
00008b   1f2e     movra   0x2e             	MOVRA	_key_press_count
00008c   1e2b     movar   0x2b             	MOVAR	(_key_down_count + 1)
00008d   5a86     jbset   0x86, 0x2        	JBSET	PFLAG,2
00008e   152b     jzar    0x2b             	JZAR	(_key_down_count + 1)
00008f   8092     goto    0x92             	GOTO	_00534_DS_
000090   1e27     movar   0x27             	MOVAR	(_timer0_count + 1)
000091   8095     goto    0x95             	GOTO	_00535_DS_
                                           _00534_DS_
000092   2c27     xch     0x27             	XCH	(_timer0_count + 1)
000093   2327     asubra  0x27             	ASUBRA	(_timer0_count + 1)
000094   2c27     xch     0x27             	XCH	(_timer0_count + 1)
                                           _00535_DS_
000095   1f2f     movra   0x2f             	MOVRA	(_key_press_count + 1)
000096   1e2c     movar   0x2c             	MOVAR	(_key_down_count + 2)
000097   5a86     jbset   0x86, 0x2        	JBSET	PFLAG,2
000098   152c     jzar    0x2c             	JZAR	(_key_down_count + 2)
000099   809c     goto    0x9c             	GOTO	_00536_DS_
00009a   1e28     movar   0x28             	MOVAR	(_timer0_count + 2)
00009b   809f     goto    0x9f             	GOTO	_00537_DS_
                                           _00536_DS_
00009c   2c28     xch     0x28             	XCH	(_timer0_count + 2)
00009d   2328     asubra  0x28             	ASUBRA	(_timer0_count + 2)
00009e   2c28     xch     0x28             	XCH	(_timer0_count + 2)
                                           _00537_DS_
00009f   1f30     movra   0x30             	MOVRA	(_key_press_count + 2)
0000a0   1e2d     movar   0x2d             	MOVAR	(_key_down_count + 3)
0000a1   5a86     jbset   0x86, 0x2        	JBSET	PFLAG,2
0000a2   152d     jzar    0x2d             	JZAR	(_key_down_count + 3)
0000a3   0000     nop                      	NOP	
0000a4   2c29     xch     0x29             	XCH	(_timer0_count + 3)
0000a5   2329     asubra  0x29             	ASUBRA	(_timer0_count + 3)
0000a6   2c29     xch     0x29             	XCH	(_timer0_count + 3)
0000a7   1f31     movra   0x31             	MOVRA	(_key_press_count + 3)
                                           ;	.line	413; "MC32P7031_Demo_C.c"	key_down_count = 0;	
0000a8   2b2a     clrr    0x2a             	CLRR	_key_down_count
0000a9   2b2b     clrr    0x2b             	CLRR	(_key_down_count + 1)
0000aa   2b2c     clrr    0x2c             	CLRR	(_key_down_count + 2)
0000ab   2b2d     clrr    0x2d             	CLRR	(_key_down_count + 3)
                                           ;;swapping arguments (AOP_TYPEs 1/3)
                                           ;;unsigned compare: left >= lit(0x65=101), size=4
                                           ;	.line	415; "MC32P7031_Demo_C.c"	if (key_press_count > 100 && key_press_count < 2000) {
0000ac   2d00     movai   0                	MOVAI	0x00
0000ad   2c31     xch     0x31             	XCH	(_key_press_count + 3)
0000ae   2331     asubra  0x31             	ASUBRA	(_key_press_count + 3)
0000af   2c31     xch     0x31             	XCH	(_key_press_count + 3)
0000b0   5886     jbset   0x86, 0          	JBSET	PFLAG,0
0000b1   80c2     goto    0xc2             	GOTO	_00538_DS_
0000b2   2d00     movai   0                	MOVAI	0x00
0000b3   2c30     xch     0x30             	XCH	(_key_press_count + 2)
0000b4   2330     asubra  0x30             	ASUBRA	(_key_press_count + 2)
0000b5   2c30     xch     0x30             	XCH	(_key_press_count + 2)
0000b6   5886     jbset   0x86, 0          	JBSET	PFLAG,0
0000b7   80c2     goto    0xc2             	GOTO	_00538_DS_
0000b8   2d00     movai   0                	MOVAI	0x00
0000b9   2c2f     xch     0x2f             	XCH	(_key_press_count + 1)
0000ba   232f     asubra  0x2f             	ASUBRA	(_key_press_count + 1)
0000bb   2c2f     xch     0x2f             	XCH	(_key_press_count + 1)
0000bc   5886     jbset   0x86, 0          	JBSET	PFLAG,0
0000bd   80c2     goto    0xc2             	GOTO	_00538_DS_
0000be   2d65     movai   0x65             	MOVAI	0x65
0000bf   2c2e     xch     0x2e             	XCH	_key_press_count
0000c0   232e     asubra  0x2e             	ASUBRA	_key_press_count
0000c1   2c2e     xch     0x2e             	XCH	_key_press_count
                                           _00538_DS_
0000c2   5a86     jbset   0x86, 0x2        	JBSET	PFLAG,2
0000c3   80dd     goto    0xdd             	GOTO	_00392_DS_
                                           ;;genSkipc:3318: created from rifx:013B5EFC
                                           ;;unsigned compare: left < lit(0x7D0=2000), size=4
0000c4   2d00     movai   0                	MOVAI	0x00
0000c5   2c31     xch     0x31             	XCH	(_key_press_count + 3)
0000c6   2331     asubra  0x31             	ASUBRA	(_key_press_count + 3)
0000c7   2c31     xch     0x31             	XCH	(_key_press_count + 3)
0000c8   5886     jbset   0x86, 0          	JBSET	PFLAG,0
0000c9   80da     goto    0xda             	GOTO	_00539_DS_
0000ca   2d00     movai   0                	MOVAI	0x00
0000cb   2c30     xch     0x30             	XCH	(_key_press_count + 2)
0000cc   2330     asubra  0x30             	ASUBRA	(_key_press_count + 2)
0000cd   2c30     xch     0x30             	XCH	(_key_press_count + 2)
0000ce   5886     jbset   0x86, 0          	JBSET	PFLAG,0
0000cf   80da     goto    0xda             	GOTO	_00539_DS_
0000d0   2d07     movai   0x7              	MOVAI	0x07
0000d1   2c2f     xch     0x2f             	XCH	(_key_press_count + 1)
0000d2   232f     asubra  0x2f             	ASUBRA	(_key_press_count + 1)
0000d3   2c2f     xch     0x2f             	XCH	(_key_press_count + 1)
0000d4   5886     jbset   0x86, 0          	JBSET	PFLAG,0
0000d5   80da     goto    0xda             	GOTO	_00539_DS_
0000d6   2dd0     movai   0xd0             	MOVAI	0xd0
0000d7   2c2e     xch     0x2e             	XCH	_key_press_count
0000d8   232e     asubra  0x2e             	ASUBRA	_key_press_count
0000d9   2c2e     xch     0x2e             	XCH	_key_press_count
                                           _00539_DS_
0000da   5286     jbclr   0x86, 0x2        	JBCLR	PFLAG,2
0000db   80dd     goto    0xdd             	GOTO	_00392_DS_
                                           ;;genSkipc:3318: created from rifx:013B5EFC
                                           ;	.line	416; "MC32P7031_Demo_C.c"	FLAG_KEY_SHORT = 1;
0000dc   493f     bset    0x3f, 0x1        	BSET	_flag1,1
                                           _00392_DS_
                                           ;	.line	423; "MC32P7031_Demo_C.c"	if (FLAG_KEY_LONG) {
0000dd   5a3f     jbset   0x3f, 0x2        	JBSET	_flag1,2
0000de   80e1     goto    0xe1             	GOTO	_00394_DS_
                                           ;	.line	424; "MC32P7031_Demo_C.c"	FLAG_KEY_LONG = 0;
0000df   423f     bclr    0x3f, 0x2        	BCLR	_flag1,2
                                           ;	.line	426; "MC32P7031_Demo_C.c"	fascia_gun_off();
0000e0   c1bb     call    0x1bb            	CALL	_fascia_gun_off
                                           _00394_DS_
                                           ;	.line	430; "MC32P7031_Demo_C.c"	if (FLAG_KEY_SHORT) {
0000e1   593f     jbset   0x3f, 0x1        	JBSET	_flag1,1
0000e2   810e     goto    0x10e            	GOTO	_00406_DS_
                                           ;	.line	431; "MC32P7031_Demo_C.c"	FLAG_KEY_SHORT = 0;
0000e3   413f     bclr    0x3f, 0x1        	BCLR	_flag1,1
                                           ;	.line	434; "MC32P7031_Demo_C.c"	if (gear == 0) {
0000e4   2d00     movai   0                	MOVAI	0x00
0000e5   183c     orar    0x3c             	ORAR	_gear
0000e6   5886     jbset   0x86, 0          	JBSET	PFLAG,0
0000e7   80eb     goto    0xeb             	GOTO	_00396_DS_
                                           ;	.line	435; "MC32P7031_Demo_C.c"	fascia_gun_on();
0000e8   c1c6     call    0x1c6            	CALL	_fascia_gun_on
                                           ;	.line	436; "MC32P7031_Demo_C.c"	bat_level = measure_bat_level();
0000e9   c324     call    0x324            	CALL	_measure_bat_level
0000ea   1f3d     movra   0x3d             	MOVRA	_bat_level
                                           _00396_DS_
                                           ;	.line	439; "MC32P7031_Demo_C.c"	gear++;
0000eb   2d01     movai   0x1              	MOVAI	0x01
0000ec   133c     addra   0x3c             	ADDRA	_gear
                                           ;	.line	440; "MC32P7031_Demo_C.c"	last_switch_gear_tick = timer0_count;
0000ed   1e26     movar   0x26             	MOVAR	_timer0_count
0000ee   1f36     movra   0x36             	MOVRA	_last_switch_gear_tick
0000ef   1e27     movar   0x27             	MOVAR	(_timer0_count + 1)
0000f0   1f37     movra   0x37             	MOVRA	(_last_switch_gear_tick + 1)
0000f1   1e28     movar   0x28             	MOVAR	(_timer0_count + 2)
0000f2   1f38     movra   0x38             	MOVRA	(_last_switch_gear_tick + 2)
0000f3   1e29     movar   0x29             	MOVAR	(_timer0_count + 3)
0000f4   1f39     movra   0x39             	MOVRA	(_last_switch_gear_tick + 3)
                                           ;	.line	443; "MC32P7031_Demo_C.c"	if (bat_level > 0) {
0000f5   2d00     movai   0                	MOVAI	0x00
0000f6   183d     orar    0x3d             	ORAR	_bat_level
0000f7   5086     jbclr   0x86, 0          	JBCLR	PFLAG,0
0000f8   8106     goto    0x106            	GOTO	_00403_DS_
                                           ;;swapping arguments (AOP_TYPEs 1/3)
                                           ;;unsigned compare: left >= lit(0x7=7), size=1
                                           ;	.line	445; "MC32P7031_Demo_C.c"	if (gear > 6) {
0000f9   2d07     movai   0x7              	MOVAI	0x07
0000fa   2c3c     xch     0x3c             	XCH	_gear
0000fb   233c     asubra  0x3c             	ASUBRA	_gear
0000fc   2c3c     xch     0x3c             	XCH	_gear
0000fd   5a86     jbset   0x86, 0x2        	JBSET	PFLAG,2
0000fe   8101     goto    0x101            	GOTO	_00398_DS_
                                           ;;genSkipc:3318: created from rifx:013B5EFC
                                           ;	.line	446; "MC32P7031_Demo_C.c"	fascia_gun_off();
0000ff   c1bb     call    0x1bb            	CALL	_fascia_gun_off
000100   810e     goto    0x10e            	GOTO	_00406_DS_
                                           _00398_DS_
                                           ;	.line	451; "MC32P7031_Demo_C.c"	led_on_by_gear(gear);
000101   1e3c     movar   0x3c             	MOVAR	_gear
000102   c23c     call    0x23c            	CALL	_led_on_by_gear
                                           ;	.line	453; "MC32P7031_Demo_C.c"	pwm_on_by_gear(gear);
000103   1e3c     movar   0x3c             	MOVAR	_gear
000104   c2cc     call    0x2cc            	CALL	_pwm_on_by_gear
000105   810e     goto    0x10e            	GOTO	_00406_DS_
                                           ;;swapping arguments (AOP_TYPEs 1/3)
                                           ;;unsigned compare: left >= lit(0x7=7), size=1
                                           _00403_DS_
                                           ;	.line	456; "MC32P7031_Demo_C.c"	if (gear > 6) {
000106   2d07     movai   0x7              	MOVAI	0x07
000107   2c3c     xch     0x3c             	XCH	_gear
000108   233c     asubra  0x3c             	ASUBRA	_gear
000109   2c3c     xch     0x3c             	XCH	_gear
00010a   5a86     jbset   0x86, 0x2        	JBSET	PFLAG,2
00010b   810e     goto    0x10e            	GOTO	_00406_DS_
                                           ;;genSkipc:3318: created from rifx:013B5EFC
                                           ;	.line	457; "MC32P7031_Demo_C.c"	gear = 6;
00010c   2d06     movai   0x6              	MOVAI	0x06
00010d   1f3c     movra   0x3c             	MOVRA	_gear
                                           _00406_DS_
                                           ;	.line	463; "MC32P7031_Demo_C.c"	if (gear > 0) {
00010e   2d00     movai   0                	MOVAI	0x00
00010f   183c     orar    0x3c             	ORAR	_gear
000110   5086     jbclr   0x86, 0          	JBCLR	PFLAG,0
000111   817f     goto    0x17f            	GOTO	_00412_DS_
                                           ;	.line	465; "MC32P7031_Demo_C.c"	if (timer0_count - last_adc_tick > 10 * 1000ul) {
000112   1e32     movar   0x32             	MOVAR	_last_adc_tick
000113   2c26     xch     0x26             	XCH	_timer0_count
000114   2326     asubra  0x26             	ASUBRA	_timer0_count
000115   2c26     xch     0x26             	XCH	_timer0_count
000116   1f1d     movra   0x1d             	MOVRA	r0x1030
000117   1e27     movar   0x27             	MOVAR	(_timer0_count + 1)
000118   1f1e     movra   0x1e             	MOVRA	r0x1031
000119   1e33     movar   0x33             	MOVAR	(_last_adc_tick + 1)
00011a   2c1e     xch     0x1e             	XCH	r0x1031
00011b   5a86     jbset   0x86, 0x2        	JBSET	PFLAG,2
00011c   161e     jzr     0x1e             	JZR	r0x1031
00011d   221e     asubar  0x1e             	ASUBAR	r0x1031
00011e   2c1e     xch     0x1e             	XCH	r0x1031
00011f   1e28     movar   0x28             	MOVAR	(_timer0_count + 2)
000120   1f1f     movra   0x1f             	MOVRA	r0x1032
000121   1e34     movar   0x34             	MOVAR	(_last_adc_tick + 2)
000122   2c1f     xch     0x1f             	XCH	r0x1032
000123   5a86     jbset   0x86, 0x2        	JBSET	PFLAG,2
000124   161f     jzr     0x1f             	JZR	r0x1032
000125   221f     asubar  0x1f             	ASUBAR	r0x1032
000126   2c1f     xch     0x1f             	XCH	r0x1032
000127   1e35     movar   0x35             	MOVAR	(_last_adc_tick + 3)
000128   5a86     jbset   0x86, 0x2        	JBSET	PFLAG,2
000129   1535     jzar    0x35             	JZAR	(_last_adc_tick + 3)
00012a   0000     nop                      	NOP	
00012b   2c29     xch     0x29             	XCH	(_timer0_count + 3)
00012c   2329     asubra  0x29             	ASUBRA	(_timer0_count + 3)
00012d   2c29     xch     0x29             	XCH	(_timer0_count + 3)
00012e   1f20     movra   0x20             	MOVRA	r0x1033
                                           ;;swapping arguments (AOP_TYPEs 1/2)
                                           ;;unsigned compare: left >= lit(0x2711=10001), size=4
00012f   2d00     movai   0                	MOVAI	0x00
000130   2c20     xch     0x20             	XCH	r0x1033
000131   2320     asubra  0x20             	ASUBRA	r0x1033
000132   2c20     xch     0x20             	XCH	r0x1033
000133   5886     jbset   0x86, 0          	JBSET	PFLAG,0
000134   8145     goto    0x145            	GOTO	_00542_DS_
000135   2d00     movai   0                	MOVAI	0x00
000136   2c1f     xch     0x1f             	XCH	r0x1032
000137   231f     asubra  0x1f             	ASUBRA	r0x1032
000138   2c1f     xch     0x1f             	XCH	r0x1032
000139   5886     jbset   0x86, 0          	JBSET	PFLAG,0
00013a   8145     goto    0x145            	GOTO	_00542_DS_
00013b   2d27     movai   0x27             	MOVAI	0x27
00013c   2c1e     xch     0x1e             	XCH	r0x1031
00013d   231e     asubra  0x1e             	ASUBRA	r0x1031
00013e   2c1e     xch     0x1e             	XCH	r0x1031
00013f   5886     jbset   0x86, 0          	JBSET	PFLAG,0
000140   8145     goto    0x145            	GOTO	_00542_DS_
000141   2d11     movai   0x11             	MOVAI	0x11
000142   2c1d     xch     0x1d             	XCH	r0x1030
000143   231d     asubra  0x1d             	ASUBRA	r0x1030
000144   2c1d     xch     0x1d             	XCH	r0x1030
                                           _00542_DS_
000145   5a86     jbset   0x86, 0x2        	JBSET	PFLAG,2
000146   8149     goto    0x149            	GOTO	_00408_DS_
                                           ;;genSkipc:3318: created from rifx:013B5EFC
                                           ;	.line	466; "MC32P7031_Demo_C.c"	bat_level = measure_bat_level();
000147   c324     call    0x324            	CALL	_measure_bat_level
000148   1f3d     movra   0x3d             	MOVRA	_bat_level
                                           _00408_DS_
                                           ;	.line	470; "MC32P7031_Demo_C.c"	if (timer0_count - last_switch_gear_tick > 15 * 60 * 1000ul) {
000149   1e36     movar   0x36             	MOVAR	_last_switch_gear_tick
00014a   2c26     xch     0x26             	XCH	_timer0_count
00014b   2326     asubra  0x26             	ASUBRA	_timer0_count
00014c   2c26     xch     0x26             	XCH	_timer0_count
00014d   1f1d     movra   0x1d             	MOVRA	r0x1030
00014e   1e27     movar   0x27             	MOVAR	(_timer0_count + 1)
00014f   1f1e     movra   0x1e             	MOVRA	r0x1031
000150   1e37     movar   0x37             	MOVAR	(_last_switch_gear_tick + 1)
000151   2c1e     xch     0x1e             	XCH	r0x1031
000152   5a86     jbset   0x86, 0x2        	JBSET	PFLAG,2
000153   161e     jzr     0x1e             	JZR	r0x1031
000154   221e     asubar  0x1e             	ASUBAR	r0x1031
000155   2c1e     xch     0x1e             	XCH	r0x1031
000156   1e28     movar   0x28             	MOVAR	(_timer0_count + 2)
000157   1f1f     movra   0x1f             	MOVRA	r0x1032
000158   1e38     movar   0x38             	MOVAR	(_last_switch_gear_tick + 2)
000159   2c1f     xch     0x1f             	XCH	r0x1032
00015a   5a86     jbset   0x86, 0x2        	JBSET	PFLAG,2
00015b   161f     jzr     0x1f             	JZR	r0x1032
00015c   221f     asubar  0x1f             	ASUBAR	r0x1032
00015d   2c1f     xch     0x1f             	XCH	r0x1032
00015e   1e39     movar   0x39             	MOVAR	(_last_switch_gear_tick + 3)
00015f   5a86     jbset   0x86, 0x2        	JBSET	PFLAG,2
000160   1539     jzar    0x39             	JZAR	(_last_switch_gear_tick + 3)
000161   0000     nop                      	NOP	
000162   2c29     xch     0x29             	XCH	(_timer0_count + 3)
000163   2329     asubra  0x29             	ASUBRA	(_timer0_count + 3)
000164   2c29     xch     0x29             	XCH	(_timer0_count + 3)
000165   1f20     movra   0x20             	MOVRA	r0x1033
                                           ;;swapping arguments (AOP_TYPEs 1/2)
                                           ;;unsigned compare: left >= lit(0xDBBA1=900001), size=4
000166   2d00     movai   0                	MOVAI	0x00
000167   2c20     xch     0x20             	XCH	r0x1033
000168   2320     asubra  0x20             	ASUBRA	r0x1033
000169   2c20     xch     0x20             	XCH	r0x1033
00016a   5886     jbset   0x86, 0          	JBSET	PFLAG,0
00016b   817c     goto    0x17c            	GOTO	_00543_DS_
00016c   2d0d     movai   0xd              	MOVAI	0x0d
00016d   2c1f     xch     0x1f             	XCH	r0x1032
00016e   231f     asubra  0x1f             	ASUBRA	r0x1032
00016f   2c1f     xch     0x1f             	XCH	r0x1032
000170   5886     jbset   0x86, 0          	JBSET	PFLAG,0
000171   817c     goto    0x17c            	GOTO	_00543_DS_
000172   2dbb     movai   0xbb             	MOVAI	0xbb
000173   2c1e     xch     0x1e             	XCH	r0x1031
000174   231e     asubra  0x1e             	ASUBRA	r0x1031
000175   2c1e     xch     0x1e             	XCH	r0x1031
000176   5886     jbset   0x86, 0          	JBSET	PFLAG,0
000177   817c     goto    0x17c            	GOTO	_00543_DS_
000178   2da1     movai   0xa1             	MOVAI	0xa1
000179   2c1d     xch     0x1d             	XCH	r0x1030
00017a   231d     asubra  0x1d             	ASUBRA	r0x1030
00017b   2c1d     xch     0x1d             	XCH	r0x1030
                                           _00543_DS_
00017c   5a86     jbset   0x86, 0x2        	JBSET	PFLAG,2
00017d   817f     goto    0x17f            	GOTO	_00412_DS_
                                           ;;genSkipc:3318: created from rifx:013B5EFC
                                           ;	.line	471; "MC32P7031_Demo_C.c"	fascia_gun_off();
00017e   c1bb     call    0x1bb            	CALL	_fascia_gun_off
                                           _00412_DS_
                                           ;	.line	476; "MC32P7031_Demo_C.c"	if (FLAG_LOW_BAT) {
00017f   5c3f     jbset   0x3f, 0x4        	JBSET	_flag1,4
000180   801e     goto    0x1e             	GOTO	_00421_DS_
                                           ;	.line	477; "MC32P7031_Demo_C.c"	for (int i=1; i<7; i++) {
000181   2d01     movai   0x1              	MOVAI	0x01
000182   1f1d     movra   0x1d             	MOVRA	r0x1030
000183   2b1e     clrr    0x1e             	CLRR	r0x1031
                                           ;;signed compare: left < lit(0x7=7), size=2, mask=ffff
                                           _00424_DS_
000184   1e1e     movar   0x1e             	MOVAR	r0x1031
000185   1480     addai   0x80             	ADDAI	0x80
000186   1480     addai   0x80             	ADDAI	0x80
000187   5886     jbset   0x86, 0          	JBSET	PFLAG,0
000188   818d     goto    0x18d            	GOTO	_00544_DS_
000189   2d07     movai   0x7              	MOVAI	0x07
00018a   2c1d     xch     0x1d             	XCH	r0x1030
00018b   231d     asubra  0x1d             	ASUBRA	r0x1030
00018c   2c1d     xch     0x1d             	XCH	r0x1030
                                           _00544_DS_
00018d   5286     jbclr   0x86, 0x2        	JBCLR	PFLAG,2
00018e   8199     goto    0x199            	GOTO	_00413_DS_
                                           ;;genSkipc:3318: created from rifx:013B5EFC
                                           ;;128	MOVAR	r0x1030
                                           ;	.line	478; "MC32P7031_Demo_C.c"	led_on(i, 1);
00018f   2d01     movai   0x1              	MOVAI	0x01
000190   1f06     movra   0x6              	MOVRA	STK00
                                           ;;127	MOVAR	r0x1032
000191   1e1d     movar   0x1d             	MOVAR	r0x1030
000192   1f1f     movra   0x1f             	MOVRA	r0x1032
000193   c275     call    0x275            	CALL	_led_on
                                           ;	.line	477; "MC32P7031_Demo_C.c"	for (int i=1; i<7; i++) {
000194   2d01     movai   0x1              	MOVAI	0x01
000195   131d     addra   0x1d             	ADDRA	r0x1030
000196   5086     jbclr   0x86, 0          	JBCLR	PFLAG,0
000197   131e     addra   0x1e             	ADDRA	r0x1031
000198   8184     goto    0x184            	GOTO	_00424_DS_
                                           _00413_DS_
                                           ;	.line	480; "MC32P7031_Demo_C.c"	delay_ms(1000);
000199   2de8     movai   0xe8             	MOVAI	0xe8
00019a   1f06     movra   0x6              	MOVRA	STK00
00019b   2d03     movai   0x3              	MOVAI	0x03
00019c   c2de     call    0x2de            	CALL	_delay_ms
                                           ;	.line	481; "MC32P7031_Demo_C.c"	for (int i=1; i<7; i++) {
00019d   2d01     movai   0x1              	MOVAI	0x01
00019e   1f1d     movra   0x1d             	MOVRA	r0x1030
00019f   2b1e     clrr    0x1e             	CLRR	r0x1031
                                           ;;signed compare: left < lit(0x7=7), size=2, mask=ffff
                                           _00427_DS_
0001a0   1e1e     movar   0x1e             	MOVAR	r0x1031
0001a1   1480     addai   0x80             	ADDAI	0x80
0001a2   1480     addai   0x80             	ADDAI	0x80
0001a3   5886     jbset   0x86, 0          	JBSET	PFLAG,0
0001a4   81a9     goto    0x1a9            	GOTO	_00545_DS_
0001a5   2d07     movai   0x7              	MOVAI	0x07
0001a6   2c1d     xch     0x1d             	XCH	r0x1030
0001a7   231d     asubra  0x1d             	ASUBRA	r0x1030
0001a8   2c1d     xch     0x1d             	XCH	r0x1030
                                           _00545_DS_
0001a9   5286     jbclr   0x86, 0x2        	JBCLR	PFLAG,2
0001aa   81b5     goto    0x1b5            	GOTO	_00414_DS_
                                           ;;genSkipc:3318: created from rifx:013B5EFC
                                           ;;119	MOVAR	r0x1030
                                           ;	.line	482; "MC32P7031_Demo_C.c"	led_on(i, 0);
0001ab   2d00     movai   0                	MOVAI	0x00
0001ac   1f06     movra   0x6              	MOVRA	STK00
                                           ;;118	MOVAR	r0x1032
0001ad   1e1d     movar   0x1d             	MOVAR	r0x1030
0001ae   1f1f     movra   0x1f             	MOVRA	r0x1032
0001af   c275     call    0x275            	CALL	_led_on
                                           ;	.line	481; "MC32P7031_Demo_C.c"	for (int i=1; i<7; i++) {
0001b0   2d01     movai   0x1              	MOVAI	0x01
0001b1   131d     addra   0x1d             	ADDRA	r0x1030
0001b2   5086     jbclr   0x86, 0          	JBCLR	PFLAG,0
0001b3   131e     addra   0x1e             	ADDRA	r0x1031
0001b4   81a0     goto    0x1a0            	GOTO	_00427_DS_
                                           _00414_DS_
                                           ;	.line	484; "MC32P7031_Demo_C.c"	delay_ms(1000);
0001b5   2de8     movai   0xe8             	MOVAI	0xe8
0001b6   1f06     movra   0x6              	MOVRA	STK00
0001b7   2d03     movai   0x3              	MOVAI	0x03
0001b8   c2de     call    0x2de            	CALL	_delay_ms
0001b9   801e     goto    0x1e             	GOTO	_00421_DS_
                                           ;	.line	488; "MC32P7031_Demo_C.c"	}
0001ba   0e00     return                   	RETURN	
                                           ; exit point of _main
                                           
                                           ;***
                                           ;  pBlock Stats: dbName = C
                                           ;***
                                           ;entry:  _fascia_gun_off	;Function start
                                           ; 2 exit points
                                           ;has an exit
                                           ;functions called:
                                           ;   _led_on_by_gear
                                           ;   _pwm_on_by_gear
                                           ;   _led_on_by_gear
                                           ;   _pwm_on_by_gear
                                           ;; Starting pCode block
                                           _fascia_gun_off	;Function start
                                           ; 2 exit points
                                           ;	.line	358; "MC32P7031_Demo_C.c"	FLAG_LOW_BAT = 0;
0001bb   443f     bclr    0x3f, 0x4        	BCLR	_flag1,4
                                           ;	.line	360; "MC32P7031_Demo_C.c"	timer0_count = 0;
0001bc   2b26     clrr    0x26             	CLRR	_timer0_count
0001bd   2b27     clrr    0x27             	CLRR	(_timer0_count + 1)
0001be   2b28     clrr    0x28             	CLRR	(_timer0_count + 2)
0001bf   2b29     clrr    0x29             	CLRR	(_timer0_count + 3)
                                           ;	.line	362; "MC32P7031_Demo_C.c"	gear = 0;
0001c0   2b3c     clrr    0x3c             	CLRR	_gear
                                           ;	.line	364; "MC32P7031_Demo_C.c"	led_on_by_gear(0);
0001c1   2d00     movai   0                	MOVAI	0x00
0001c2   c23c     call    0x23c            	CALL	_led_on_by_gear
                                           ;	.line	366; "MC32P7031_Demo_C.c"	pwm_on_by_gear(0);
0001c3   2d00     movai   0                	MOVAI	0x00
0001c4   c2cc     call    0x2cc            	CALL	_pwm_on_by_gear
                                           ;	.line	367; "MC32P7031_Demo_C.c"	}
0001c5   0e00     return                   	RETURN	
                                           ; exit point of _fascia_gun_off
                                           
                                           ;***
                                           ;  pBlock Stats: dbName = C
                                           ;***
                                           ;entry:  _fascia_gun_on	;Function start
                                           ; 2 exit points
                                           ;has an exit
                                           ;; Starting pCode block
                                           _fascia_gun_on	;Function start
                                           ; 2 exit points
                                           ;	.line	350; "MC32P7031_Demo_C.c"	timer0_count = 0;
0001c6   2b26     clrr    0x26             	CLRR	_timer0_count
0001c7   2b27     clrr    0x27             	CLRR	(_timer0_count + 1)
0001c8   2b28     clrr    0x28             	CLRR	(_timer0_count + 2)
0001c9   2b29     clrr    0x29             	CLRR	(_timer0_count + 3)
                                           ;	.line	351; "MC32P7031_Demo_C.c"	last_switch_gear_tick = 0;
0001ca   2b36     clrr    0x36             	CLRR	_last_switch_gear_tick
0001cb   2b37     clrr    0x37             	CLRR	(_last_switch_gear_tick + 1)
0001cc   2b38     clrr    0x38             	CLRR	(_last_switch_gear_tick + 2)
0001cd   2b39     clrr    0x39             	CLRR	(_last_switch_gear_tick + 3)
                                           ;	.line	352; "MC32P7031_Demo_C.c"	last_adc_tick = 0;
0001ce   2b32     clrr    0x32             	CLRR	_last_adc_tick
0001cf   2b33     clrr    0x33             	CLRR	(_last_adc_tick + 1)
0001d0   2b34     clrr    0x34             	CLRR	(_last_adc_tick + 2)
0001d1   2b35     clrr    0x35             	CLRR	(_last_adc_tick + 3)
                                           ;	.line	353; "MC32P7031_Demo_C.c"	}
0001d2   0e00     return                   	RETURN	
                                           ; exit point of _fascia_gun_on
                                           
                                           ;***
                                           ;  pBlock Stats: dbName = C
                                           ;***
                                           ;entry:  _fascia_gun_is_charging	;Function start
                                           ; 2 exit points
                                           ;has an exit
                                           ;1 compiler assigned register :
                                           ;   r0x101A
                                           ;; Starting pCode block
                                           _fascia_gun_is_charging	;Function start
                                           ; 2 exit points
                                           ;;gen.c:6651: size=0, offset=0, AOP_TYPE(res)=8
                                           ;	.line	342; "MC32P7031_Demo_C.c"	IO_buff.byte = IOP4;
0001d3   1ed4     movar   0xd4             	MOVAR	_IOP4
0001d4   1f3e     movra   0x3e             	MOVRA	(_IO_buff + 0)
                                           ;	.line	343; "MC32P7031_Demo_C.c"	return IO_BIT3;
0001d5   2b07     clrr    0x7              	CLRR	r0x101A
0001d6   533e     jbclr   0x3e, 0x3        	JBCLR	_IO_buff,3
0001d7   1607     jzr     0x7              	JZR	r0x101A
0001d8   0000     nop                      	NOP	
0001d9   1e07     movar   0x7              	MOVAR	r0x101A
                                           ;	.line	344; "MC32P7031_Demo_C.c"	}
0001da   0e00     return                   	RETURN	
                                           ; exit point of _fascia_gun_is_charging
                                           
                                           ;***
                                           ;  pBlock Stats: dbName = C
                                           ;***
                                           ;entry:  _led_on_by_bat	;Function start
                                           ; 2 exit points
                                           ;has an exit
                                           ;functions called:
                                           ;   _led_on
                                           ;   _led_on
                                           ;   _delay_ms
                                           ;   _led_on
                                           ;   _delay_ms
                                           ;   _led_on
                                           ;   _led_on
                                           ;   _delay_ms
                                           ;   _led_on
                                           ;   _delay_ms
                                           ;9 compiler assigned registers:
                                           ;   r0x1028
                                           ;   r0x1029
                                           ;   r0x102A
                                           ;   r0x102B
                                           ;   r0x102C
                                           ;   r0x102D
                                           ;   r0x102E
                                           ;   STK00
                                           ;   r0x102F
                                           ;; Starting pCode block
                                           _led_on_by_bat	;Function start
                                           ; 2 exit points
0001db   1f16     movra   0x16             	MOVRA	r0x1029
                                           ;	.line	321; "MC32P7031_Demo_C.c"	void led_on_by_bat(u8 n)
0001dc   1f15     movra   0x15             	MOVRA	r0x1028
                                           ;;124	MOVAR	r0x1028
                                           ;	.line	323; "MC32P7031_Demo_C.c"	for (int i=(n+1); i<7; i++) {
0001dd   2b17     clrr    0x17             	CLRR	r0x102A
0001de   2d01     movai   0x1              	MOVAI	0x01
0001df   1216     addar   0x16             	ADDAR	r0x1029
0001e0   1f19     movra   0x19             	MOVRA	r0x102C
0001e1   1f15     movra   0x15             	MOVRA	r0x1028
0001e2   2b18     clrr    0x18             	CLRR	r0x102B
0001e3   0b18     rlr     0x18             	RLR	r0x102B
0001e4   2d00     movai   0                	MOVAI	0x00
0001e5   1318     addra   0x18             	ADDRA	r0x102B
                                           ;;113	MOVAR	r0x1028
0001e6   1e18     movar   0x18             	MOVAR	r0x102B
0001e7   1f1a     movra   0x1a             	MOVRA	r0x102D
                                           ;;signed compare: left < lit(0x7=7), size=2, mask=ffff
                                           _00320_DS_
0001e8   1e1a     movar   0x1a             	MOVAR	r0x102D
0001e9   1480     addai   0x80             	ADDAI	0x80
0001ea   1480     addai   0x80             	ADDAI	0x80
0001eb   5886     jbset   0x86, 0          	JBSET	PFLAG,0
0001ec   81f1     goto    0x1f1            	GOTO	_00357_DS_
0001ed   2d07     movai   0x7              	MOVAI	0x07
0001ee   2c19     xch     0x19             	XCH	r0x102C
0001ef   2319     asubra  0x19             	ASUBRA	r0x102C
0001f0   2c19     xch     0x19             	XCH	r0x102C
                                           _00357_DS_
0001f1   5286     jbclr   0x86, 0x2        	JBCLR	PFLAG,2
0001f2   81fd     goto    0x1fd            	GOTO	_00316_DS_
                                           ;;genSkipc:3318: created from rifx:013B5EFC
                                           ;;126	MOVAR	r0x102C
                                           ;	.line	324; "MC32P7031_Demo_C.c"	led_on(i, 0);
0001f3   2d00     movai   0                	MOVAI	0x00
0001f4   1f06     movra   0x6              	MOVRA	STK00
                                           ;;125	MOVAR	r0x102E
0001f5   1e19     movar   0x19             	MOVAR	r0x102C
0001f6   1f1b     movra   0x1b             	MOVRA	r0x102E
0001f7   c275     call    0x275            	CALL	_led_on
                                           ;	.line	323; "MC32P7031_Demo_C.c"	for (int i=(n+1); i<7; i++) {
0001f8   2d01     movai   0x1              	MOVAI	0x01
0001f9   1319     addra   0x19             	ADDRA	r0x102C
0001fa   5086     jbclr   0x86, 0          	JBCLR	PFLAG,0
0001fb   131a     addra   0x1a             	ADDRA	r0x102D
0001fc   81e8     goto    0x1e8            	GOTO	_00320_DS_
                                           _00316_DS_
                                           ;	.line	327; "MC32P7031_Demo_C.c"	for (int i=1; i<=n; i++) {
0001fd   2d01     movai   0x1              	MOVAI	0x01
0001fe   1f19     movra   0x19             	MOVRA	r0x102C
0001ff   2b1a     clrr    0x1a             	CLRR	r0x102D
                                           _00323_DS_
000200   1e17     movar   0x17             	MOVAR	r0x102A
000201   1480     addai   0x80             	ADDAI	0x80
000202   1f1c     movra   0x1c             	MOVRA	r0x102F
000203   1e1a     movar   0x1a             	MOVAR	r0x102D
000204   1480     addai   0x80             	ADDAI	0x80
000205   2c1c     xch     0x1c             	XCH	r0x102F
000206   231c     asubra  0x1c             	ASUBRA	r0x102F
000207   2c1c     xch     0x1c             	XCH	r0x102F
000208   5886     jbset   0x86, 0          	JBSET	PFLAG,0
000209   820e     goto    0x20e            	GOTO	_00358_DS_
00020a   1e19     movar   0x19             	MOVAR	r0x102C
00020b   2c16     xch     0x16             	XCH	r0x1029
00020c   2316     asubra  0x16             	ASUBRA	r0x1029
00020d   2c16     xch     0x16             	XCH	r0x1029
                                           _00358_DS_
00020e   5a86     jbset   0x86, 0x2        	JBSET	PFLAG,2
00020f   821a     goto    0x21a            	GOTO	_00317_DS_
                                           ;;genSkipc:3318: created from rifx:013B5EFC
                                           ;;117	MOVAR	r0x102C
                                           ;	.line	328; "MC32P7031_Demo_C.c"	led_on(i, 1);
000210   2d01     movai   0x1              	MOVAI	0x01
000211   1f06     movra   0x6              	MOVRA	STK00
                                           ;;116	MOVAR	r0x102E
000212   1e19     movar   0x19             	MOVAR	r0x102C
000213   1f1b     movra   0x1b             	MOVRA	r0x102E
000214   c275     call    0x275            	CALL	_led_on
                                           ;	.line	327; "MC32P7031_Demo_C.c"	for (int i=1; i<=n; i++) {
000215   2d01     movai   0x1              	MOVAI	0x01
000216   1319     addra   0x19             	ADDRA	r0x102C
000217   5086     jbclr   0x86, 0          	JBCLR	PFLAG,0
000218   131a     addra   0x1a             	ADDRA	r0x102D
000219   8200     goto    0x200            	GOTO	_00323_DS_
                                           _00317_DS_
                                           ;	.line	331; "MC32P7031_Demo_C.c"	delay_ms(1000);
00021a   2de8     movai   0xe8             	MOVAI	0xe8
00021b   1f06     movra   0x6              	MOVRA	STK00
00021c   2d03     movai   0x3              	MOVAI	0x03
00021d   c2de     call    0x2de            	CALL	_delay_ms
                                           ;	.line	333; "MC32P7031_Demo_C.c"	for (int i=(n+1); i<7; i++) {
00021e   1e15     movar   0x15             	MOVAR	r0x1028
00021f   1f15     movra   0x15             	MOVRA	r0x1028
000220   1e18     movar   0x18             	MOVAR	r0x102B
000221   1f16     movra   0x16             	MOVRA	r0x1029
                                           ;;signed compare: left < lit(0x7=7), size=2, mask=ffff
                                           _00326_DS_
000222   1e16     movar   0x16             	MOVAR	r0x1029
000223   1480     addai   0x80             	ADDAI	0x80
000224   1480     addai   0x80             	ADDAI	0x80
000225   5886     jbset   0x86, 0          	JBSET	PFLAG,0
000226   822b     goto    0x22b            	GOTO	_00359_DS_
000227   2d07     movai   0x7              	MOVAI	0x07
000228   2c15     xch     0x15             	XCH	r0x1028
000229   2315     asubra  0x15             	ASUBRA	r0x1028
00022a   2c15     xch     0x15             	XCH	r0x1028
                                           _00359_DS_
00022b   5286     jbclr   0x86, 0x2        	JBCLR	PFLAG,2
00022c   823b     goto    0x23b            	GOTO	_00328_DS_
                                           ;;genSkipc:3318: created from rifx:013B5EFC
                                           ;;115	MOVAR	r0x1028
                                           ;	.line	334; "MC32P7031_Demo_C.c"	led_on(i, 1);
00022d   2d01     movai   0x1              	MOVAI	0x01
00022e   1f06     movra   0x6              	MOVRA	STK00
                                           ;;114	MOVAR	r0x102A
00022f   1e15     movar   0x15             	MOVAR	r0x1028
000230   1f17     movra   0x17             	MOVRA	r0x102A
000231   c275     call    0x275            	CALL	_led_on
                                           ;	.line	335; "MC32P7031_Demo_C.c"	delay_ms(1000);
000232   2de8     movai   0xe8             	MOVAI	0xe8
000233   1f06     movra   0x6              	MOVRA	STK00
000234   2d03     movai   0x3              	MOVAI	0x03
000235   c2de     call    0x2de            	CALL	_delay_ms
                                           ;	.line	333; "MC32P7031_Demo_C.c"	for (int i=(n+1); i<7; i++) {
000236   2d01     movai   0x1              	MOVAI	0x01
000237   1315     addra   0x15             	ADDRA	r0x1028
000238   5086     jbclr   0x86, 0          	JBCLR	PFLAG,0
000239   1316     addra   0x16             	ADDRA	r0x1029
00023a   8222     goto    0x222            	GOTO	_00326_DS_
                                           _00328_DS_
                                           ;	.line	337; "MC32P7031_Demo_C.c"	}
00023b   0e00     return                   	RETURN	
                                           ; exit point of _led_on_by_bat
                                           
                                           ;***
                                           ;  pBlock Stats: dbName = C
                                           ;***
                                           ;entry:  _led_on_by_gear	;Function start
                                           ; 2 exit points
                                           ;has an exit
                                           ;functions called:
                                           ;   _led_on
                                           ;   _led_on
                                           ;   _led_on
                                           ;   _led_on
                                           ;7 compiler assigned registers:
                                           ;   r0x101C
                                           ;   r0x101D
                                           ;   r0x101E
                                           ;   r0x101F
                                           ;   STK00
                                           ;   r0x1020
                                           ;   r0x1021
                                           ;; Starting pCode block
                                           _led_on_by_gear	;Function start
                                           ; 2 exit points
                                           ;	.line	302; "MC32P7031_Demo_C.c"	void led_on_by_gear(u8 n) 
00023c   1f09     movra   0x9              	MOVRA	r0x101C
                                           ;	.line	304; "MC32P7031_Demo_C.c"	for (int i=1; i<7; i++) {
00023d   2d01     movai   0x1              	MOVAI	0x01
00023e   1f0a     movra   0xa              	MOVRA	r0x101D
00023f   2b0b     clrr    0xb              	CLRR	r0x101E
                                           ;;signed compare: left < lit(0x7=7), size=2, mask=ffff
                                           _00285_DS_
000240   1e0b     movar   0xb              	MOVAR	r0x101E
000241   1480     addai   0x80             	ADDAI	0x80
000242   1480     addai   0x80             	ADDAI	0x80
000243   5886     jbset   0x86, 0          	JBSET	PFLAG,0
000244   8249     goto    0x249            	GOTO	_00310_DS_
000245   2d07     movai   0x7              	MOVAI	0x07
000246   2c0a     xch     0xa              	XCH	r0x101D
000247   230a     asubra  0xa              	ASUBRA	r0x101D
000248   2c0a     xch     0xa              	XCH	r0x101D
                                           _00310_DS_
000249   5286     jbclr   0x86, 0x2        	JBCLR	PFLAG,2
00024a   8255     goto    0x255            	GOTO	_00282_DS_
                                           ;;genSkipc:3318: created from rifx:013B5EFC
                                           ;;123	MOVAR	r0x101D
                                           ;	.line	305; "MC32P7031_Demo_C.c"	led_on(i, 0);
00024b   2d00     movai   0                	MOVAI	0x00
00024c   1f06     movra   0x6              	MOVRA	STK00
                                           ;;122	MOVAR	r0x101F
00024d   1e0a     movar   0xa              	MOVAR	r0x101D
00024e   1f0c     movra   0xc              	MOVRA	r0x101F
00024f   c275     call    0x275            	CALL	_led_on
                                           ;	.line	304; "MC32P7031_Demo_C.c"	for (int i=1; i<7; i++) {
000250   2d01     movai   0x1              	MOVAI	0x01
000251   130a     addra   0xa              	ADDRA	r0x101D
000252   5086     jbclr   0x86, 0          	JBCLR	PFLAG,0
000253   130b     addra   0xb              	ADDRA	r0x101E
000254   8240     goto    0x240            	GOTO	_00285_DS_
                                           _00282_DS_
                                           ;	.line	308; "MC32P7031_Demo_C.c"	for (int i=1; i<=n; i++) {
000255   2d01     movai   0x1              	MOVAI	0x01
000256   1f0a     movra   0xa              	MOVRA	r0x101D
000257   2b0b     clrr    0xb              	CLRR	r0x101E
                                           _00288_DS_
000258   1e09     movar   0x9              	MOVAR	r0x101C
000259   1f0c     movra   0xc              	MOVRA	r0x101F
                                           ;;1	CLRR	r0x1020
00025a   2d00     movai   0                	MOVAI	0x00
00025b   1480     addai   0x80             	ADDAI	0x80
00025c   1f0e     movra   0xe              	MOVRA	r0x1021
00025d   1e0b     movar   0xb              	MOVAR	r0x101E
00025e   1480     addai   0x80             	ADDAI	0x80
00025f   2c0e     xch     0xe              	XCH	r0x1021
000260   230e     asubra  0xe              	ASUBRA	r0x1021
000261   2c0e     xch     0xe              	XCH	r0x1021
000262   5886     jbset   0x86, 0          	JBSET	PFLAG,0
000263   8268     goto    0x268            	GOTO	_00311_DS_
000264   1e0a     movar   0xa              	MOVAR	r0x101D
000265   2c0c     xch     0xc              	XCH	r0x101F
000266   230c     asubra  0xc              	ASUBRA	r0x101F
000267   2c0c     xch     0xc              	XCH	r0x101F
                                           _00311_DS_
000268   5a86     jbset   0x86, 0x2        	JBSET	PFLAG,2
000269   8274     goto    0x274            	GOTO	_00290_DS_
                                           ;;genSkipc:3318: created from rifx:013B5EFC
                                           ;;112	MOVAR	r0x101D
                                           ;	.line	309; "MC32P7031_Demo_C.c"	led_on(i, 1);
00026a   2d01     movai   0x1              	MOVAI	0x01
00026b   1f06     movra   0x6              	MOVRA	STK00
                                           ;;111	MOVAR	r0x101F
00026c   1e0a     movar   0xa              	MOVAR	r0x101D
00026d   1f0c     movra   0xc              	MOVRA	r0x101F
00026e   c275     call    0x275            	CALL	_led_on
                                           ;	.line	308; "MC32P7031_Demo_C.c"	for (int i=1; i<=n; i++) {
00026f   2d01     movai   0x1              	MOVAI	0x01
000270   130a     addra   0xa              	ADDRA	r0x101D
000271   5086     jbclr   0x86, 0          	JBCLR	PFLAG,0
000272   130b     addra   0xb              	ADDRA	r0x101E
000273   8258     goto    0x258            	GOTO	_00288_DS_
                                           _00290_DS_
                                           ;	.line	311; "MC32P7031_Demo_C.c"	}
000274   0e00     return                   	RETURN	
                                           ; exit point of _led_on_by_gear
                                           
                                           ;***
                                           ;  pBlock Stats: dbName = C
                                           ;***
                                           ;entry:  _led_on	;Function start
                                           ; 2 exit points
                                           ;has an exit
                                           ;3 compiler assigned registers:
                                           ;   r0x101A
                                           ;   STK00
                                           ;   r0x101B
                                           ;; Starting pCode block
                                           _led_on	;Function start
                                           ; 2 exit points
                                           ;	.line	272; "MC32P7031_Demo_C.c"	void led_on(u8 n, u8 onoff)
000275   1f07     movra   0x7              	MOVRA	r0x101A
000276   1e06     movar   0x6              	MOVAR	STK00
000277   1f08     movra   0x8              	MOVRA	r0x101B
                                           ;	.line	274; "MC32P7031_Demo_C.c"	if (n == 1) {
000278   1e07     movar   0x7              	MOVAR	r0x101A
000279   1d01     xorai   0x1              	XORAI	0x01
00027a   5886     jbset   0x86, 0          	JBSET	PFLAG,0
00027b   8286     goto    0x286            	GOTO	_00275_DS_
                                           ;;gen.c:6651: size=0, offset=0, AOP_TYPE(res)=8
                                           ;	.line	275; "MC32P7031_Demo_C.c"	IO_buff.byte = IOP0;
00027c   1ed0     movar   0xd0             	MOVAR	_IOP0
00027d   1f3e     movra   0x3e             	MOVRA	(_IO_buff + 0)
                                           ;	.line	276; "MC32P7031_Demo_C.c"	IO_BIT2 = onoff;
00027e   0808     rrar    0x8              	RRAR	r0x101B
00027f   5a86     jbset   0x86, 0x2        	JBSET	PFLAG,2
000280   423e     bclr    0x3e, 0x2        	BCLR	_IO_buff,2
000281   5286     jbclr   0x86, 0x2        	JBCLR	PFLAG,2
000282   4a3e     bset    0x3e, 0x2        	BSET	_IO_buff,2
                                           ;	.line	277; "MC32P7031_Demo_C.c"	IOP0 = IO_buff.byte;
000283   1e3e     movar   0x3e             	MOVAR	(_IO_buff + 0)
000284   1fd0     movra   0xd0             	MOVRA	_IOP0
000285   82cb     goto    0x2cb            	GOTO	_00277_DS_
                                           _00275_DS_
                                           ;	.line	278; "MC32P7031_Demo_C.c"	} else if (n == 2) {
000286   1e07     movar   0x7              	MOVAR	r0x101A
000287   1d02     xorai   0x2              	XORAI	0x02
000288   5886     jbset   0x86, 0          	JBSET	PFLAG,0
000289   8294     goto    0x294            	GOTO	_00272_DS_
                                           ;;gen.c:6651: size=0, offset=0, AOP_TYPE(res)=8
                                           ;	.line	279; "MC32P7031_Demo_C.c"	IO_buff.byte = IOP5;
00028a   1ed5     movar   0xd5             	MOVAR	_IOP5
00028b   1f3e     movra   0x3e             	MOVRA	(_IO_buff + 0)
                                           ;	.line	280; "MC32P7031_Demo_C.c"	IO_BIT3 = onoff;
00028c   0808     rrar    0x8              	RRAR	r0x101B
00028d   5a86     jbset   0x86, 0x2        	JBSET	PFLAG,2
00028e   433e     bclr    0x3e, 0x3        	BCLR	_IO_buff,3
00028f   5286     jbclr   0x86, 0x2        	JBCLR	PFLAG,2
000290   4b3e     bset    0x3e, 0x3        	BSET	_IO_buff,3
                                           ;	.line	281; "MC32P7031_Demo_C.c"	IOP5 = IO_buff.byte;
000291   1e3e     movar   0x3e             	MOVAR	(_IO_buff + 0)
000292   1fd5     movra   0xd5             	MOVRA	_IOP5
000293   82cb     goto    0x2cb            	GOTO	_00277_DS_
                                           _00272_DS_
                                           ;	.line	282; "MC32P7031_Demo_C.c"	} else if (n == 3) {
000294   1e07     movar   0x7              	MOVAR	r0x101A
000295   1d03     xorai   0x3              	XORAI	0x03
000296   5886     jbset   0x86, 0          	JBSET	PFLAG,0
000297   82a2     goto    0x2a2            	GOTO	_00269_DS_
                                           ;;gen.c:6651: size=0, offset=0, AOP_TYPE(res)=8
                                           ;	.line	283; "MC32P7031_Demo_C.c"	IO_buff.byte = IOP0;
000298   1ed0     movar   0xd0             	MOVAR	_IOP0
000299   1f3e     movra   0x3e             	MOVRA	(_IO_buff + 0)
                                           ;	.line	284; "MC32P7031_Demo_C.c"	IO_BIT0 = onoff;
00029a   0808     rrar    0x8              	RRAR	r0x101B
00029b   5a86     jbset   0x86, 0x2        	JBSET	PFLAG,2
00029c   403e     bclr    0x3e, 0          	BCLR	_IO_buff,0
00029d   5286     jbclr   0x86, 0x2        	JBCLR	PFLAG,2
00029e   483e     bset    0x3e, 0          	BSET	_IO_buff,0
                                           ;	.line	285; "MC32P7031_Demo_C.c"	IOP0 = IO_buff.byte;
00029f   1e3e     movar   0x3e             	MOVAR	(_IO_buff + 0)
0002a0   1fd0     movra   0xd0             	MOVRA	_IOP0
0002a1   82cb     goto    0x2cb            	GOTO	_00277_DS_
                                           _00269_DS_
                                           ;	.line	286; "MC32P7031_Demo_C.c"	} else if (n == 4) {
0002a2   1e07     movar   0x7              	MOVAR	r0x101A
0002a3   1d04     xorai   0x4              	XORAI	0x04
0002a4   5886     jbset   0x86, 0          	JBSET	PFLAG,0
0002a5   82b0     goto    0x2b0            	GOTO	_00266_DS_
                                           ;;gen.c:6651: size=0, offset=0, AOP_TYPE(res)=8
                                           ;	.line	287; "MC32P7031_Demo_C.c"	IO_buff.byte = IOP4;
0002a6   1ed4     movar   0xd4             	MOVAR	_IOP4
0002a7   1f3e     movra   0x3e             	MOVRA	(_IO_buff + 0)
                                           ;	.line	288; "MC32P7031_Demo_C.c"	IO_BIT2 = onoff;
0002a8   0808     rrar    0x8              	RRAR	r0x101B
0002a9   5a86     jbset   0x86, 0x2        	JBSET	PFLAG,2
0002aa   423e     bclr    0x3e, 0x2        	BCLR	_IO_buff,2
0002ab   5286     jbclr   0x86, 0x2        	JBCLR	PFLAG,2
0002ac   4a3e     bset    0x3e, 0x2        	BSET	_IO_buff,2
                                           ;	.line	289; "MC32P7031_Demo_C.c"	IOP4 = IO_buff.byte;
0002ad   1e3e     movar   0x3e             	MOVAR	(_IO_buff + 0)
0002ae   1fd4     movra   0xd4             	MOVRA	_IOP4
0002af   82cb     goto    0x2cb            	GOTO	_00277_DS_
                                           _00266_DS_
                                           ;	.line	290; "MC32P7031_Demo_C.c"	} else if (n == 5) {
0002b0   1e07     movar   0x7              	MOVAR	r0x101A
0002b1   1d05     xorai   0x5              	XORAI	0x05
0002b2   5886     jbset   0x86, 0          	JBSET	PFLAG,0
0002b3   82be     goto    0x2be            	GOTO	_00263_DS_
                                           ;;gen.c:6651: size=0, offset=0, AOP_TYPE(res)=8
                                           ;	.line	291; "MC32P7031_Demo_C.c"	IO_buff.byte = IOP4;
0002b4   1ed4     movar   0xd4             	MOVAR	_IOP4
0002b5   1f3e     movra   0x3e             	MOVRA	(_IO_buff + 0)
                                           ;	.line	292; "MC32P7031_Demo_C.c"	IO_BIT1 = onoff;
0002b6   0808     rrar    0x8              	RRAR	r0x101B
0002b7   5a86     jbset   0x86, 0x2        	JBSET	PFLAG,2
0002b8   413e     bclr    0x3e, 0x1        	BCLR	_IO_buff,1
0002b9   5286     jbclr   0x86, 0x2        	JBCLR	PFLAG,2
0002ba   493e     bset    0x3e, 0x1        	BSET	_IO_buff,1
                                           ;	.line	293; "MC32P7031_Demo_C.c"	IOP4 = IO_buff.byte;
0002bb   1e3e     movar   0x3e             	MOVAR	(_IO_buff + 0)
0002bc   1fd4     movra   0xd4             	MOVRA	_IOP4
0002bd   82cb     goto    0x2cb            	GOTO	_00277_DS_
                                           _00263_DS_
                                           ;	.line	294; "MC32P7031_Demo_C.c"	} else if (n == 6) {
0002be   1e07     movar   0x7              	MOVAR	r0x101A
0002bf   1d06     xorai   0x6              	XORAI	0x06
0002c0   5886     jbset   0x86, 0          	JBSET	PFLAG,0
0002c1   82cb     goto    0x2cb            	GOTO	_00277_DS_
                                           ;;gen.c:6651: size=0, offset=0, AOP_TYPE(res)=8
                                           ;	.line	295; "MC32P7031_Demo_C.c"	IO_buff.byte = IOP4;
0002c2   1ed4     movar   0xd4             	MOVAR	_IOP4
0002c3   1f3e     movra   0x3e             	MOVRA	(_IO_buff + 0)
                                           ;	.line	296; "MC32P7031_Demo_C.c"	IO_BIT0 = onoff;
0002c4   0808     rrar    0x8              	RRAR	r0x101B
0002c5   5a86     jbset   0x86, 0x2        	JBSET	PFLAG,2
0002c6   403e     bclr    0x3e, 0          	BCLR	_IO_buff,0
0002c7   5286     jbclr   0x86, 0x2        	JBCLR	PFLAG,2
0002c8   483e     bset    0x3e, 0          	BSET	_IO_buff,0
                                           ;	.line	297; "MC32P7031_Demo_C.c"	IOP4 = IO_buff.byte;
0002c9   1e3e     movar   0x3e             	MOVAR	(_IO_buff + 0)
0002ca   1fd4     movra   0xd4             	MOVRA	_IOP4
                                           _00277_DS_
                                           ;	.line	299; "MC32P7031_Demo_C.c"	}
0002cb   0e00     return                   	RETURN	
                                           ; exit point of _led_on
                                           
                                           ;***
                                           ;  pBlock Stats: dbName = C
                                           ;***
                                           ;entry:  _pwm_on_by_gear	;Function start
                                           ; 2 exit points
                                           ;has an exit
                                           ;functions called:
                                           ;   __mulchar
                                           ;   __mulchar
                                           ;3 compiler assigned registers:
                                           ;   r0x101A
                                           ;   r0x101B
                                           ;   STK00
                                           ;; Starting pCode block
                                           _pwm_on_by_gear	;Function start
                                           ; 2 exit points
                                           ;	.line	259; "MC32P7031_Demo_C.c"	void pwm_on_by_gear(u8 gear)
0002cc   1f07     movra   0x7              	MOVRA	r0x101A
                                           ;	.line	261; "MC32P7031_Demo_C.c"	PWM0OE=0;
0002cd   40da     bclr    0xda, 0          	BCLR	_T0CRbits,0
                                           ;	.line	262; "MC32P7031_Demo_C.c"	TC0EN=0;
0002ce   47da     bclr    0xda, 0x7        	BCLR	_T0CRbits,7
                                           ;	.line	264; "MC32P7031_Demo_C.c"	if (gear > 0) {
0002cf   2d00     movai   0                	MOVAI	0x00
0002d0   1807     orar    0x7              	ORAR	r0x101A
0002d1   5086     jbclr   0x86, 0          	JBCLR	PFLAG,0
0002d2   82dd     goto    0x2dd            	GOTO	_00255_DS_
                                           ;;104	MOVAR	r0x101A
                                           ;;102	MOVRA	r0x101B
                                           ;	.line	265; "MC32P7031_Demo_C.c"	T0D = 190 + gear * 10;
0002d3   2d0a     movai   0xa              	MOVAI	0x0a
0002d4   1f06     movra   0x6              	MOVRA	STK00
                                           ;;103	MOVAR	r0x101B
0002d5   1e07     movar   0x7              	MOVAR	r0x101A
0002d6   c47f     call    0x47f            	CALL	__mulchar
0002d7   1f07     movra   0x7              	MOVRA	r0x101A
0002d8   2dbe     movai   0xbe             	MOVAI	0xbe
0002d9   1207     addar   0x7              	ADDAR	r0x101A
0002da   1fcd     movra   0xcd             	MOVRA	_T0D
                                           ;	.line	266; "MC32P7031_Demo_C.c"	PWM0OE=1;
0002db   48da     bset    0xda, 0          	BSET	_T0CRbits,0
                                           ;	.line	267; "MC32P7031_Demo_C.c"	TC0EN=1;
0002dc   4fda     bset    0xda, 0x7        	BSET	_T0CRbits,7
                                           _00255_DS_
                                           ;	.line	269; "MC32P7031_Demo_C.c"	}
0002dd   0e00     return                   	RETURN	
                                           ; exit point of _pwm_on_by_gear
                                           
                                           ;***
                                           ;  pBlock Stats: dbName = C
                                           ;***
                                           ;entry:  _delay_ms	;Function start
                                           ; 2 exit points
                                           ;has an exit
                                           ;15 compiler assigned registers:
                                           ;   r0x101A
                                           ;   STK00
                                           ;   r0x101B
                                           ;   r0x101C
                                           ;   r0x101D
                                           ;   r0x101E
                                           ;   r0x101F
                                           ;   r0x1020
                                           ;   r0x1021
                                           ;   r0x1022
                                           ;   r0x1023
                                           ;   r0x1024
                                           ;   r0x1025
                                           ;   r0x1026
                                           ;   r0x1027
                                           ;; Starting pCode block
                                           _delay_ms	;Function start
                                           ; 2 exit points
                                           ;	.line	252; "MC32P7031_Demo_C.c"	void delay_ms(u16 ms)
0002de   1f07     movra   0x7              	MOVRA	r0x101A
0002df   1e06     movar   0x6              	MOVAR	STK00
0002e0   1f08     movra   0x8              	MOVRA	r0x101B
                                           ;	.line	254; "MC32P7031_Demo_C.c"	uint32_t start = timer0_count;
0002e1   1e26     movar   0x26             	MOVAR	_timer0_count
0002e2   1f09     movra   0x9              	MOVRA	r0x101C
0002e3   1e27     movar   0x27             	MOVAR	(_timer0_count + 1)
0002e4   1f0a     movra   0xa              	MOVRA	r0x101D
0002e5   1e28     movar   0x28             	MOVAR	(_timer0_count + 2)
0002e6   1f0b     movra   0xb              	MOVRA	r0x101E
0002e7   1e29     movar   0x29             	MOVAR	(_timer0_count + 3)
0002e8   1f0c     movra   0xc              	MOVRA	r0x101F
                                           _00239_DS_
                                           ;	.line	255; "MC32P7031_Demo_C.c"	while(timer0_count - start < ms);
0002e9   1e09     movar   0x9              	MOVAR	r0x101C
0002ea   2c26     xch     0x26             	XCH	_timer0_count
0002eb   2326     asubra  0x26             	ASUBRA	_timer0_count
0002ec   2c26     xch     0x26             	XCH	_timer0_count
0002ed   1f0d     movra   0xd              	MOVRA	r0x1020
0002ee   1e27     movar   0x27             	MOVAR	(_timer0_count + 1)
0002ef   1f0e     movra   0xe              	MOVRA	r0x1021
0002f0   1e0a     movar   0xa              	MOVAR	r0x101D
0002f1   2c0e     xch     0xe              	XCH	r0x1021
0002f2   5a86     jbset   0x86, 0x2        	JBSET	PFLAG,2
0002f3   160e     jzr     0xe              	JZR	r0x1021
0002f4   220e     asubar  0xe              	ASUBAR	r0x1021
0002f5   2c0e     xch     0xe              	XCH	r0x1021
0002f6   1e28     movar   0x28             	MOVAR	(_timer0_count + 2)
0002f7   1f0f     movra   0xf              	MOVRA	r0x1022
0002f8   1e0b     movar   0xb              	MOVAR	r0x101E
0002f9   2c0f     xch     0xf              	XCH	r0x1022
0002fa   5a86     jbset   0x86, 0x2        	JBSET	PFLAG,2
0002fb   160f     jzr     0xf              	JZR	r0x1022
0002fc   220f     asubar  0xf              	ASUBAR	r0x1022
0002fd   2c0f     xch     0xf              	XCH	r0x1022
0002fe   1e0c     movar   0xc              	MOVAR	r0x101F
0002ff   5a86     jbset   0x86, 0x2        	JBSET	PFLAG,2
000300   150c     jzar    0xc              	JZAR	r0x101F
000301   0000     nop                      	NOP	
000302   2c29     xch     0x29             	XCH	(_timer0_count + 3)
000303   2329     asubra  0x29             	ASUBRA	(_timer0_count + 3)
000304   2c29     xch     0x29             	XCH	(_timer0_count + 3)
000305   1f10     movra   0x10             	MOVRA	r0x1023
000306   1e08     movar   0x8              	MOVAR	r0x101B
000307   1f11     movra   0x11             	MOVRA	r0x1024
000308   1e07     movar   0x7              	MOVAR	r0x101A
000309   1f12     movra   0x12             	MOVRA	r0x1025
00030a   2b13     clrr    0x13             	CLRR	r0x1026
                                           ;;1	CLRR	r0x1027
00030b   2d00     movai   0                	MOVAI	0x00
00030c   2c10     xch     0x10             	XCH	r0x1023
00030d   2310     asubra  0x10             	ASUBRA	r0x1023
00030e   2c10     xch     0x10             	XCH	r0x1023
00030f   5886     jbset   0x86, 0          	JBSET	PFLAG,0
000310   8321     goto    0x321            	GOTO	_00248_DS_
000311   1e13     movar   0x13             	MOVAR	r0x1026
000312   2c0f     xch     0xf              	XCH	r0x1022
000313   230f     asubra  0xf              	ASUBRA	r0x1022
000314   2c0f     xch     0xf              	XCH	r0x1022
000315   5886     jbset   0x86, 0          	JBSET	PFLAG,0
000316   8321     goto    0x321            	GOTO	_00248_DS_
000317   1e12     movar   0x12             	MOVAR	r0x1025
000318   2c0e     xch     0xe              	XCH	r0x1021
000319   230e     asubra  0xe              	ASUBRA	r0x1021
00031a   2c0e     xch     0xe              	XCH	r0x1021
00031b   5886     jbset   0x86, 0          	JBSET	PFLAG,0
00031c   8321     goto    0x321            	GOTO	_00248_DS_
00031d   1e11     movar   0x11             	MOVAR	r0x1024
00031e   2c0d     xch     0xd              	XCH	r0x1020
00031f   230d     asubra  0xd              	ASUBRA	r0x1020
000320   2c0d     xch     0xd              	XCH	r0x1020
                                           _00248_DS_
000321   5a86     jbset   0x86, 0x2        	JBSET	PFLAG,2
000322   82e9     goto    0x2e9            	GOTO	_00239_DS_
                                           ;;genSkipc:3318: created from rifx:013B5EFC
                                           ;	.line	256; "MC32P7031_Demo_C.c"	}
000323   0e00     return                   	RETURN	
                                           ; exit point of _delay_ms
                                           
                                           ;***
                                           ;  pBlock Stats: dbName = C
                                           ;***
                                           ;entry:  _measure_bat_level	;Function start
                                           ; 2 exit points
                                           ;has an exit
                                           ;functions called:
                                           ;   _ADC_Get_Value_Average
                                           ;   _ADC_Get_Value_Average
                                           ;; Starting pCode block
                                           _measure_bat_level	;Function start
                                           ; 2 exit points
                                           ;	.line	232; "MC32P7031_Demo_C.c"	ADC_Get_Value_Average(4);
000324   2d04     movai   0x4              	MOVAI	0x04
000325   c37d     call    0x37d            	CALL	_ADC_Get_Value_Average
                                           ;;swapping arguments (AOP_TYPEs 1/3)
                                           ;;unsigned compare: left >= lit(0x6BB=1723), size=2
                                           ;	.line	234; "MC32P7031_Demo_C.c"	if (adctmp > 1722) {
000326   2d06     movai   0x6              	MOVAI	0x06
000327   2c3b     xch     0x3b             	XCH	(_adctmp + 1)
000328   233b     asubra  0x3b             	ASUBRA	(_adctmp + 1)
000329   2c3b     xch     0x3b             	XCH	(_adctmp + 1)
00032a   5886     jbset   0x86, 0          	JBSET	PFLAG,0
00032b   8330     goto    0x330            	GOTO	_00229_DS_
00032c   2dbb     movai   0xbb             	MOVAI	0xbb
00032d   2c3a     xch     0x3a             	XCH	_adctmp
00032e   233a     asubra  0x3a             	ASUBRA	_adctmp
00032f   2c3a     xch     0x3a             	XCH	_adctmp
                                           _00229_DS_
000330   5a86     jbset   0x86, 0x2        	JBSET	PFLAG,2
000331   8334     goto    0x334            	GOTO	_00201_DS_
                                           ;;genSkipc:3318: created from rifx:013B5EFC
                                           ;	.line	235; "MC32P7031_Demo_C.c"	return 6;
000332   2d06     movai   0x6              	MOVAI	0x06
000333   837c     goto    0x37c            	GOTO	_00203_DS_
                                           ;;swapping arguments (AOP_TYPEs 1/3)
                                           ;;unsigned compare: left >= lit(0x691=1681), size=2
                                           _00201_DS_
                                           ;	.line	236; "MC32P7031_Demo_C.c"	} else if (adctmp > 1680) {
000334   2d06     movai   0x6              	MOVAI	0x06
000335   2c3b     xch     0x3b             	XCH	(_adctmp + 1)
000336   233b     asubra  0x3b             	ASUBRA	(_adctmp + 1)
000337   2c3b     xch     0x3b             	XCH	(_adctmp + 1)
000338   5886     jbset   0x86, 0          	JBSET	PFLAG,0
000339   833e     goto    0x33e            	GOTO	_00230_DS_
00033a   2d91     movai   0x91             	MOVAI	0x91
00033b   2c3a     xch     0x3a             	XCH	_adctmp
00033c   233a     asubra  0x3a             	ASUBRA	_adctmp
00033d   2c3a     xch     0x3a             	XCH	_adctmp
                                           _00230_DS_
00033e   5a86     jbset   0x86, 0x2        	JBSET	PFLAG,2
00033f   8342     goto    0x342            	GOTO	_00198_DS_
                                           ;;genSkipc:3318: created from rifx:013B5EFC
                                           ;	.line	237; "MC32P7031_Demo_C.c"	return 5;
000340   2d05     movai   0x5              	MOVAI	0x05
000341   837c     goto    0x37c            	GOTO	_00203_DS_
                                           ;;swapping arguments (AOP_TYPEs 1/3)
                                           ;;unsigned compare: left >= lit(0x613=1555), size=2
                                           _00198_DS_
                                           ;	.line	238; "MC32P7031_Demo_C.c"	} else if (adctmp > 1554) {
000342   2d06     movai   0x6              	MOVAI	0x06
000343   2c3b     xch     0x3b             	XCH	(_adctmp + 1)
000344   233b     asubra  0x3b             	ASUBRA	(_adctmp + 1)
000345   2c3b     xch     0x3b             	XCH	(_adctmp + 1)
000346   5886     jbset   0x86, 0          	JBSET	PFLAG,0
000347   834c     goto    0x34c            	GOTO	_00231_DS_
000348   2d13     movai   0x13             	MOVAI	0x13
000349   2c3a     xch     0x3a             	XCH	_adctmp
00034a   233a     asubra  0x3a             	ASUBRA	_adctmp
00034b   2c3a     xch     0x3a             	XCH	_adctmp
                                           _00231_DS_
00034c   5a86     jbset   0x86, 0x2        	JBSET	PFLAG,2
00034d   8350     goto    0x350            	GOTO	_00195_DS_
                                           ;;genSkipc:3318: created from rifx:013B5EFC
                                           ;	.line	239; "MC32P7031_Demo_C.c"	return 4;
00034e   2d04     movai   0x4              	MOVAI	0x04
00034f   837c     goto    0x37c            	GOTO	_00203_DS_
                                           ;;swapping arguments (AOP_TYPEs 1/3)
                                           ;;unsigned compare: left >= lit(0x5BF=1471), size=2
                                           _00195_DS_
                                           ;	.line	240; "MC32P7031_Demo_C.c"	} else if (adctmp > 1470) {
000350   2d05     movai   0x5              	MOVAI	0x05
000351   2c3b     xch     0x3b             	XCH	(_adctmp + 1)
000352   233b     asubra  0x3b             	ASUBRA	(_adctmp + 1)
000353   2c3b     xch     0x3b             	XCH	(_adctmp + 1)
000354   5886     jbset   0x86, 0          	JBSET	PFLAG,0
000355   835a     goto    0x35a            	GOTO	_00232_DS_
000356   2dbf     movai   0xbf             	MOVAI	0xbf
000357   2c3a     xch     0x3a             	XCH	_adctmp
000358   233a     asubra  0x3a             	ASUBRA	_adctmp
000359   2c3a     xch     0x3a             	XCH	_adctmp
                                           _00232_DS_
00035a   5a86     jbset   0x86, 0x2        	JBSET	PFLAG,2
00035b   835e     goto    0x35e            	GOTO	_00192_DS_
                                           ;;genSkipc:3318: created from rifx:013B5EFC
                                           ;	.line	241; "MC32P7031_Demo_C.c"	return 3;
00035c   2d03     movai   0x3              	MOVAI	0x03
00035d   837c     goto    0x37c            	GOTO	_00203_DS_
                                           ;;swapping arguments (AOP_TYPEs 1/3)
                                           ;;unsigned compare: left >= lit(0x56B=1387), size=2
                                           _00192_DS_
                                           ;	.line	242; "MC32P7031_Demo_C.c"	} else if (adctmp > 1386) {
00035e   2d05     movai   0x5              	MOVAI	0x05
00035f   2c3b     xch     0x3b             	XCH	(_adctmp + 1)
000360   233b     asubra  0x3b             	ASUBRA	(_adctmp + 1)
000361   2c3b     xch     0x3b             	XCH	(_adctmp + 1)
000362   5886     jbset   0x86, 0          	JBSET	PFLAG,0
000363   8368     goto    0x368            	GOTO	_00233_DS_
000364   2d6b     movai   0x6b             	MOVAI	0x6b
000365   2c3a     xch     0x3a             	XCH	_adctmp
000366   233a     asubra  0x3a             	ASUBRA	_adctmp
000367   2c3a     xch     0x3a             	XCH	_adctmp
                                           _00233_DS_
000368   5a86     jbset   0x86, 0x2        	JBSET	PFLAG,2
000369   836c     goto    0x36c            	GOTO	_00189_DS_
                                           ;;genSkipc:3318: created from rifx:013B5EFC
                                           ;	.line	243; "MC32P7031_Demo_C.c"	return 2;
00036a   2d02     movai   0x2              	MOVAI	0x02
00036b   837c     goto    0x37c            	GOTO	_00203_DS_
                                           ;;swapping arguments (AOP_TYPEs 1/3)
                                           ;;unsigned compare: left >= lit(0x529=1321), size=2
                                           _00189_DS_
                                           ;	.line	244; "MC32P7031_Demo_C.c"	} else if (adctmp > 1320) {
00036c   2d05     movai   0x5              	MOVAI	0x05
00036d   2c3b     xch     0x3b             	XCH	(_adctmp + 1)
00036e   233b     asubra  0x3b             	ASUBRA	(_adctmp + 1)
00036f   2c3b     xch     0x3b             	XCH	(_adctmp + 1)
000370   5886     jbset   0x86, 0          	JBSET	PFLAG,0
000371   8376     goto    0x376            	GOTO	_00234_DS_
000372   2d29     movai   0x29             	MOVAI	0x29
000373   2c3a     xch     0x3a             	XCH	_adctmp
000374   233a     asubra  0x3a             	ASUBRA	_adctmp
000375   2c3a     xch     0x3a             	XCH	_adctmp
                                           _00234_DS_
000376   5a86     jbset   0x86, 0x2        	JBSET	PFLAG,2
000377   837a     goto    0x37a            	GOTO	_00193_DS_
                                           ;;genSkipc:3318: created from rifx:013B5EFC
                                           ;	.line	245; "MC32P7031_Demo_C.c"	return 1;
000378   2d01     movai   0x1              	MOVAI	0x01
000379   837c     goto    0x37c            	GOTO	_00203_DS_
                                           _00193_DS_
                                           ;	.line	248; "MC32P7031_Demo_C.c"	FLAG_LOW_BAT = 1;
00037a   4c3f     bset    0x3f, 0x4        	BSET	_flag1,4
                                           ;	.line	249; "MC32P7031_Demo_C.c"	return 0;
00037b   2d00     movai   0                	MOVAI	0x00
                                           _00203_DS_
                                           ;	.line	250; "MC32P7031_Demo_C.c"	}
00037c   0e00     return                   	RETURN	
                                           ; exit point of _measure_bat_level
                                           
                                           ;***
                                           ;  pBlock Stats: dbName = C
                                           ;***
                                           ;entry:  _ADC_Get_Value_Average	;Function start
                                           ; 2 exit points
                                           ;has an exit
                                           ;16 compiler assigned registers:
                                           ;   r0x101A
                                           ;   r0x101B
                                           ;   r0x101C
                                           ;   r0x101D
                                           ;   r0x101E
                                           ;   r0x101F
                                           ;   r0x1020
                                           ;   r0x1021
                                           ;   r0x1022
                                           ;   r0x1023
                                           ;   r0x1024
                                           ;   r0x1025
                                           ;   r0x1026
                                           ;   r0x1027
                                           ;   r0x1028
                                           ;   STK00
                                           ;; Starting pCode block
                                           _ADC_Get_Value_Average	;Function start
                                           ; 2 exit points
                                           ;	.line	190; "MC32P7031_Demo_C.c"	uint ADC_Get_Value_Average(uchar CHX)
00037d   1f07     movra   0x7              	MOVRA	r0x101A
                                           ;	.line	193; "MC32P7031_Demo_C.c"	unsigned long int tmpBuff = 0;
00037e   2b08     clrr    0x8              	CLRR	r0x101B
00037f   2b09     clrr    0x9              	CLRR	r0x101C
000380   2b0a     clrr    0xa              	CLRR	r0x101D
000381   2b0b     clrr    0xb              	CLRR	r0x101E
                                           ;	.line	194; "MC32P7031_Demo_C.c"	u16 ADCMAX = 0;
000382   2b0c     clrr    0xc              	CLRR	r0x101F
000383   2b0d     clrr    0xd              	CLRR	r0x1020
                                           ;	.line	195; "MC32P7031_Demo_C.c"	u16 ADCMIN = 0xffff;
000384   2dff     movai   0xff             	MOVAI	0xff
000385   1f0e     movra   0xe              	MOVRA	r0x1021
000386   1f0f     movra   0xf              	MOVRA	r0x1022
                                           ;	.line	197; "MC32P7031_Demo_C.c"	ADCR = (ADCR & 0xf8) | CHX; // ADC   AD    CHX
000387   1eb1     movar   0xb1             	MOVAR	_ADCR
000388   1f10     movra   0x10             	MOVRA	r0x1023
000389   2df8     movai   0xf8             	MOVAI	0xf8
00038a   2910     andra   0x10             	ANDRA	r0x1023
00038b   1e07     movar   0x7              	MOVAR	r0x101A
00038c   1810     orar    0x10             	ORAR	r0x1023
00038d   1fb1     movra   0xb1             	MOVRA	_ADCR
                                           ;	.line	198; "MC32P7031_Demo_C.c"	for (channel = 0; channel < 20; channel++)
00038e   2b07     clrr    0x7              	CLRR	r0x101A
                                           _00140_DS_
                                           ;	.line	200; "MC32P7031_Demo_C.c"	ADEOC = 0; 
00038f   45b1     bclr    0xb1, 0x5        	BCLR	_ADCRbits,5
                                           ;	.line	201; "MC32P7031_Demo_C.c"	ADST = 1; // 
000390   4eb1     bset    0xb1, 0x6        	BSET	_ADCRbits,6
                                           _00129_DS_
                                           ;	.line	202; "MC32P7031_Demo_C.c"	while (!ADEOC)
000391   5db1     jbset   0xb1, 0x5        	JBSET	_ADCRbits,5
000392   8391     goto    0x391            	GOTO	_00129_DS_
                                           ;	.line	204; "MC32P7031_Demo_C.c"	adctmp = ADRH;
000393   1eb2     movar   0xb2             	MOVAR	_ADRH
000394   1f3a     movra   0x3a             	MOVRA	_adctmp
000395   2b3b     clrr    0x3b             	CLRR	(_adctmp + 1)
                                           ;	.line	205; "MC32P7031_Demo_C.c"	adctmp = adctmp << 4 | (ADRL & 0x0f);
000396   173b     swapar  0x3b             	SWAPAR	(_adctmp + 1)
000397   2af0     andai   0xf0             	ANDAI	0xf0
000398   1f11     movra   0x11             	MOVRA	r0x1024
000399   173a     swapar  0x3a             	SWAPAR	_adctmp
00039a   1f10     movra   0x10             	MOVRA	r0x1023
00039b   2a0f     andai   0xf              	ANDAI	0x0f
00039c   1911     orra    0x11             	ORRA	r0x1024
00039d   1c10     xorra   0x10             	XORRA	r0x1023
00039e   1eb3     movar   0xb3             	MOVAR	_ADRL
00039f   1f12     movra   0x12             	MOVRA	r0x1025
0003a0   2b13     clrr    0x13             	CLRR	r0x1026
0003a1   2d0f     movai   0xf              	MOVAI	0x0f
0003a2   2912     andra   0x12             	ANDRA	r0x1025
0003a3   2b13     clrr    0x13             	CLRR	r0x1026
                                           ;;110	MOVAR	r0x1025
                                           ;;101	MOVAR	r0x1026
                                           ;;99	MOVRA	r0x1028
                                           ;;109	MOVAR	r0x1027
0003a4   1e12     movar   0x12             	MOVAR	r0x1025
0003a5   1f14     movra   0x14             	MOVRA	r0x1027
0003a6   1810     orar    0x10             	ORAR	r0x1023
0003a7   1f3a     movra   0x3a             	MOVRA	_adctmp
                                           ;;100	MOVAR	r0x1028
0003a8   2d00     movai   0                	MOVAI	0x00
0003a9   1811     orar    0x11             	ORAR	r0x1024
0003aa   1f3b     movra   0x3b             	MOVRA	(_adctmp + 1)
                                           ;;unsigned compare: left < lit(0x2=2), size=1
                                           ;	.line	206; "MC32P7031_Demo_C.c"	if (channel < 2)
0003ab   2d02     movai   0x2              	MOVAI	0x02
0003ac   2c07     xch     0x7              	XCH	r0x101A
0003ad   2307     asubra  0x7              	ASUBRA	r0x101A
0003ae   2c07     xch     0x7              	XCH	r0x101A
0003af   5a86     jbset   0x86, 0x2        	JBSET	PFLAG,2
0003b0   83e5     goto    0x3e5            	GOTO	_00138_DS_
                                           ;;genSkipc:3318: created from rifx:013B5EFC
                                           ;	.line	208; "MC32P7031_Demo_C.c"	if (adctmp > ADCMAX)
0003b1   1e3b     movar   0x3b             	MOVAR	(_adctmp + 1)
0003b2   2c0d     xch     0xd              	XCH	r0x1020
0003b3   230d     asubra  0xd              	ASUBRA	r0x1020
0003b4   2c0d     xch     0xd              	XCH	r0x1020
0003b5   5886     jbset   0x86, 0          	JBSET	PFLAG,0
0003b6   83bb     goto    0x3bb            	GOTO	_00180_DS_
0003b7   1e3a     movar   0x3a             	MOVAR	_adctmp
0003b8   2c0c     xch     0xc              	XCH	r0x101F
0003b9   230c     asubra  0xc              	ASUBRA	r0x101F
0003ba   2c0c     xch     0xc              	XCH	r0x101F
                                           _00180_DS_
0003bb   5286     jbclr   0x86, 0x2        	JBCLR	PFLAG,2
0003bc   83c1     goto    0x3c1            	GOTO	_00135_DS_
                                           ;;genSkipc:3318: created from rifx:013B5EFC
                                           ;	.line	209; "MC32P7031_Demo_C.c"	ADCMAX = adctmp; //
0003bd   1e3a     movar   0x3a             	MOVAR	_adctmp
0003be   1f0c     movra   0xc              	MOVRA	r0x101F
0003bf   1e3b     movar   0x3b             	MOVAR	(_adctmp + 1)
0003c0   1f0d     movra   0xd              	MOVRA	r0x1020
                                           _00135_DS_
                                           ;	.line	210; "MC32P7031_Demo_C.c"	if (adctmp < ADCMIN)
0003c1   1e0f     movar   0xf              	MOVAR	r0x1022
0003c2   2c3b     xch     0x3b             	XCH	(_adctmp + 1)
0003c3   233b     asubra  0x3b             	ASUBRA	(_adctmp + 1)
0003c4   2c3b     xch     0x3b             	XCH	(_adctmp + 1)
0003c5   5886     jbset   0x86, 0          	JBSET	PFLAG,0
0003c6   83cb     goto    0x3cb            	GOTO	_00181_DS_
0003c7   1e0e     movar   0xe              	MOVAR	r0x1021
0003c8   2c3a     xch     0x3a             	XCH	_adctmp
0003c9   233a     asubra  0x3a             	ASUBRA	_adctmp
0003ca   2c3a     xch     0x3a             	XCH	_adctmp
                                           _00181_DS_
0003cb   5286     jbclr   0x86, 0x2        	JBCLR	PFLAG,2
0003cc   83d1     goto    0x3d1            	GOTO	_00137_DS_
                                           ;;genSkipc:3318: created from rifx:013B5EFC
                                           ;	.line	211; "MC32P7031_Demo_C.c"	ADCMIN = adctmp; //
0003cd   1e3a     movar   0x3a             	MOVAR	_adctmp
0003ce   1f0e     movra   0xe              	MOVRA	r0x1021
0003cf   1e3b     movar   0x3b             	MOVAR	(_adctmp + 1)
0003d0   1f0f     movra   0xf              	MOVRA	r0x1022
                                           _00137_DS_
                                           ;	.line	212; "MC32P7031_Demo_C.c"	tmpBuff += adctmp;
0003d1   1e3a     movar   0x3a             	MOVAR	_adctmp
0003d2   1f10     movra   0x10             	MOVRA	r0x1023
0003d3   1e3b     movar   0x3b             	MOVAR	(_adctmp + 1)
0003d4   1f11     movra   0x11             	MOVRA	r0x1024
0003d5   2b12     clrr    0x12             	CLRR	r0x1025
0003d6   2b13     clrr    0x13             	CLRR	r0x1026
0003d7   1e10     movar   0x10             	MOVAR	r0x1023
0003d8   1308     addra   0x8              	ADDRA	r0x101B
0003d9   1e11     movar   0x11             	MOVAR	r0x1024
0003da   5286     jbclr   0x86, 0x2        	JBCLR	PFLAG,2
0003db   1511     jzar    0x11             	JZAR	r0x1024
0003dc   1309     addra   0x9              	ADDRA	r0x101C
0003dd   1e12     movar   0x12             	MOVAR	r0x1025
0003de   5286     jbclr   0x86, 0x2        	JBCLR	PFLAG,2
0003df   1512     jzar    0x12             	JZAR	r0x1025
0003e0   130a     addra   0xa              	ADDRA	r0x101D
0003e1   1e13     movar   0x13             	MOVAR	r0x1026
0003e2   5286     jbclr   0x86, 0x2        	JBCLR	PFLAG,2
0003e3   1513     jzar    0x13             	JZAR	r0x1026
0003e4   130b     addra   0xb              	ADDRA	r0x101E
                                           _00138_DS_
                                           ;	.line	198; "MC32P7031_Demo_C.c"	for (channel = 0; channel < 20; channel++)
0003e5   2d01     movai   0x1              	MOVAI	0x01
0003e6   1307     addra   0x7              	ADDRA	r0x101A
                                           ;;unsigned compare: left < lit(0x14=20), size=1
0003e7   2d14     movai   0x14             	MOVAI	0x14
0003e8   2c07     xch     0x7              	XCH	r0x101A
0003e9   2307     asubra  0x7              	ASUBRA	r0x101A
0003ea   2c07     xch     0x7              	XCH	r0x101A
0003eb   5a86     jbset   0x86, 0x2        	JBSET	PFLAG,2
0003ec   838f     goto    0x38f            	GOTO	_00140_DS_
                                           ;;genSkipc:3318: created from rifx:013B5EFC
                                           ;;121	MOVAR	r0x101F
                                           ;	.line	215; "MC32P7031_Demo_C.c"	tmpBuff -= ADCMAX; 	   	   	   	 //
0003ed   1e0d     movar   0xd              	MOVAR	r0x1020
0003ee   1f10     movra   0x10             	MOVRA	r0x1023
0003ef   2b11     clrr    0x11             	CLRR	r0x1024
0003f0   2b12     clrr    0x12             	CLRR	r0x1025
                                           ;;120	MOVAR	r0x101A
0003f1   1e0c     movar   0xc              	MOVAR	r0x101F
0003f2   1f07     movra   0x7              	MOVRA	r0x101A
0003f3   2c08     xch     0x8              	XCH	r0x101B
0003f4   2308     asubra  0x8              	ASUBRA	r0x101B
0003f5   2c08     xch     0x8              	XCH	r0x101B
0003f6   1f0c     movra   0xc              	MOVRA	r0x101F
0003f7   1e09     movar   0x9              	MOVAR	r0x101C
0003f8   1f0d     movra   0xd              	MOVRA	r0x1020
0003f9   1e10     movar   0x10             	MOVAR	r0x1023
0003fa   2c0d     xch     0xd              	XCH	r0x1020
0003fb   5a86     jbset   0x86, 0x2        	JBSET	PFLAG,2
0003fc   160d     jzr     0xd              	JZR	r0x1020
0003fd   220d     asubar  0xd              	ASUBAR	r0x1020
0003fe   2c0d     xch     0xd              	XCH	r0x1020
0003ff   1e0a     movar   0xa              	MOVAR	r0x101D
000400   1f13     movra   0x13             	MOVRA	r0x1026
000401   1e11     movar   0x11             	MOVAR	r0x1024
000402   2c13     xch     0x13             	XCH	r0x1026
000403   5a86     jbset   0x86, 0x2        	JBSET	PFLAG,2
000404   1613     jzr     0x13             	JZR	r0x1026
000405   2213     asubar  0x13             	ASUBAR	r0x1026
000406   2c13     xch     0x13             	XCH	r0x1026
000407   1e12     movar   0x12             	MOVAR	r0x1025
000408   5a86     jbset   0x86, 0x2        	JBSET	PFLAG,2
000409   1512     jzar    0x12             	JZAR	r0x1025
00040a   0000     nop                      	NOP	
00040b   2c0b     xch     0xb              	XCH	r0x101E
00040c   230b     asubra  0xb              	ASUBRA	r0x101E
00040d   2c0b     xch     0xb              	XCH	r0x101E
00040e   1f14     movra   0x14             	MOVRA	r0x1027
                                           ;;106	MOVAR	r0x1021
                                           ;;108	MOVAR	r0x1022
                                           ;	.line	216; "MC32P7031_Demo_C.c"	tmpBuff -= ADCMIN; 	   	   	   	 //
00040f   2b09     clrr    0x9              	CLRR	r0x101C
000410   2b0a     clrr    0xa              	CLRR	r0x101D
                                           ;;105	MOVAR	r0x101A
000411   1e0e     movar   0xe              	MOVAR	r0x1021
000412   1f07     movra   0x7              	MOVRA	r0x101A
000413   2c0c     xch     0xc              	XCH	r0x101F
000414   220c     asubar  0xc              	ASUBAR	r0x101F
000415   2c0c     xch     0xc              	XCH	r0x101F
                                           ;;107	MOVAR	r0x101B
000416   1e0f     movar   0xf              	MOVAR	r0x1022
000417   1f08     movra   0x8              	MOVRA	r0x101B
000418   2c0d     xch     0xd              	XCH	r0x1020
000419   5a86     jbset   0x86, 0x2        	JBSET	PFLAG,2
00041a   160d     jzr     0xd              	JZR	r0x1020
00041b   220d     asubar  0xd              	ASUBAR	r0x1020
00041c   2c0d     xch     0xd              	XCH	r0x1020
00041d   1e09     movar   0x9              	MOVAR	r0x101C
00041e   2c13     xch     0x13             	XCH	r0x1026
00041f   5a86     jbset   0x86, 0x2        	JBSET	PFLAG,2
000420   1613     jzr     0x13             	JZR	r0x1026
000421   2213     asubar  0x13             	ASUBAR	r0x1026
000422   2c13     xch     0x13             	XCH	r0x1026
000423   1e0a     movar   0xa              	MOVAR	r0x101D
000424   2c14     xch     0x14             	XCH	r0x1027
000425   5a86     jbset   0x86, 0x2        	JBSET	PFLAG,2
000426   1614     jzr     0x14             	JZR	r0x1027
000427   2214     asubar  0x14             	ASUBAR	r0x1027
000428   2c14     xch     0x14             	XCH	r0x1027
                                           ;	.line	217; "MC32P7031_Demo_C.c"	adctmp = (tmpBuff >> 4); //16
000429   170c     swapar  0xc              	SWAPAR	r0x101F
00042a   2a0f     andai   0xf              	ANDAI	0x0f
00042b   1f07     movra   0x7              	MOVRA	r0x101A
00042c   170d     swapar  0xd              	SWAPAR	r0x1020
00042d   1f08     movra   0x8              	MOVRA	r0x101B
00042e   2af0     andai   0xf0             	ANDAI	0xf0
00042f   1907     orra    0x7              	ORRA	r0x101A
000430   1c08     xorra   0x8              	XORRA	r0x101B
000431   1713     swapar  0x13             	SWAPAR	r0x1026
000432   1f09     movra   0x9              	MOVRA	r0x101C
000433   2af0     andai   0xf0             	ANDAI	0xf0
000434   1908     orra    0x8              	ORRA	r0x101B
000435   1c09     xorra   0x9              	XORRA	r0x101C
000436   1714     swapar  0x14             	SWAPAR	r0x1027
000437   1f0a     movra   0xa              	MOVRA	r0x101D
000438   2af0     andai   0xf0             	ANDAI	0xf0
000439   1909     orra    0x9              	ORRA	r0x101C
00043a   1c0a     xorra   0xa              	XORRA	r0x101D
00043b   1e07     movar   0x7              	MOVAR	r0x101A
00043c   1f3a     movra   0x3a             	MOVRA	_adctmp
00043d   1e08     movar   0x8              	MOVAR	r0x101B
00043e   1f3b     movra   0x3b             	MOVRA	(_adctmp + 1)
                                           ;	.line	218; "MC32P7031_Demo_C.c"	return adctmp;
00043f   1e3a     movar   0x3a             	MOVAR	_adctmp
000440   1f06     movra   0x6              	MOVRA	STK00
000441   1e3b     movar   0x3b             	MOVAR	(_adctmp + 1)
                                           ;	.line	219; "MC32P7031_Demo_C.c"	}
000442   0e00     return                   	RETURN	
                                           ; exit point of _ADC_Get_Value_Average
                                           
                                           ;***
                                           ;  pBlock Stats: dbName = C
                                           ;***
                                           ;entry:  _Sys_Init	;Function start
                                           ; 2 exit points
                                           ;has an exit
                                           ;functions called:
                                           ;   _CLR_RAM
                                           ;   _IO_Init
                                           ;   _TIMER2_INT_Init
                                           ;   _TIMER0_PWM_Init
                                           ;   _ADC_Init
                                           ;   _CLR_RAM
                                           ;   _IO_Init
                                           ;   _TIMER2_INT_Init
                                           ;   _TIMER0_PWM_Init
                                           ;   _ADC_Init
                                           ;; Starting pCode block
                                           _Sys_Init	;Function start
                                           ; 2 exit points
                                           ;	.line	142; "MC32P7031_Demo_C.c"	GIE = 0;
000443   47df     bclr    0xdf, 0x7        	BCLR	_STKPbits,7
                                           ;	.line	143; "MC32P7031_Demo_C.c"	CLR_RAM();
000444   c477     call    0x477            	CALL	_CLR_RAM
                                           ;	.line	144; "MC32P7031_Demo_C.c"	IO_Init();
000445   c467     call    0x467            	CALL	_IO_Init
                                           ;	.line	145; "MC32P7031_Demo_C.c"	TIMER2_INT_Init();
000446   c45c     call    0x45c            	CALL	_TIMER2_INT_Init
                                           ;	.line	146; "MC32P7031_Demo_C.c"	TIMER0_PWM_Init();
000447   c454     call    0x454            	CALL	_TIMER0_PWM_Init
                                           ;	.line	147; "MC32P7031_Demo_C.c"	ADC_Init();
000448   c44b     call    0x44b            	CALL	_ADC_Init
                                           ;	.line	148; "MC32P7031_Demo_C.c"	GIE = 1;
000449   4fdf     bset    0xdf, 0x7        	BSET	_STKPbits,7
                                           ;	.line	149; "MC32P7031_Demo_C.c"	}
00044a   0e00     return                   	RETURN	
                                           ; exit point of _Sys_Init
                                           
                                           ;***
                                           ;  pBlock Stats: dbName = C
                                           ;***
                                           ;entry:  _ADC_Init	;Function start
                                           ; 2 exit points
                                           ;has an exit
                                           ;; Starting pCode block
                                           _ADC_Init	;Function start
                                           ; 2 exit points
                                           ;	.line	127; "MC32P7031_Demo_C.c"	ADCR &= 0x00;
00044b   2bb1     clrr    0xb1             	CLRR	_ADCR
                                           ;	.line	128; "MC32P7031_Demo_C.c"	ADCR |= 0x90;
00044c   2d90     movai   0x90             	MOVAI	0x90
00044d   19b1     orra    0xb1             	ORRA	_ADCR
                                           ;	.line	129; "MC32P7031_Demo_C.c"	VREF = 0x02; // 4.0V
00044e   2d02     movai   0x2              	MOVAI	0x02
00044f   1faf     movra   0xaf             	MOVRA	_VREF
                                           ;	.line	130; "MC32P7031_Demo_C.c"	ADRL &= 0x80;
000450   2d80     movai   0x80             	MOVAI	0x80
000451   29b3     andra   0xb3             	ANDRA	_ADRL
                                           ;	.line	131; "MC32P7031_Demo_C.c"	ADRL |= 0x20; //adc  Fcpu/16
000452   4db3     bset    0xb3, 0x5        	BSET	_ADRL,5
                                           ;	.line	132; "MC32P7031_Demo_C.c"	}
000453   0e00     return                   	RETURN	
                                           ; exit point of _ADC_Init
                                           
                                           ;***
                                           ;  pBlock Stats: dbName = C
                                           ;***
                                           ;entry:  _TIMER0_PWM_Init	;Function start
                                           ; 2 exit points
                                           ;has an exit
                                           ;; Starting pCode block
                                           _TIMER0_PWM_Init	;Function start
                                           ; 2 exit points
                                           ;	.line	110; "MC32P7031_Demo_C.c"	T0CR = 0xF1;
000454   2df1     movai   0xf1             	MOVAI	0xf1
000455   1fda     movra   0xda             	MOVRA	_T0CR
                                           ;	.line	111; "MC32P7031_Demo_C.c"	T0C = 0;
000456   2bdb     clrr    0xdb             	CLRR	_T0C
                                           ;	.line	112; "MC32P7031_Demo_C.c"	T0D = 200;
000457   2dc8     movai   0xc8             	MOVAI	0xc8
000458   1fcd     movra   0xcd             	MOVRA	_T0D
                                           ;	.line	114; "MC32P7031_Demo_C.c"	PWM0OE=0;
000459   40da     bclr    0xda, 0          	BCLR	_T0CRbits,0
                                           ;	.line	115; "MC32P7031_Demo_C.c"	TC0EN=0;
00045a   47da     bclr    0xda, 0x7        	BCLR	_T0CRbits,7
                                           ;	.line	116; "MC32P7031_Demo_C.c"	}
00045b   0e00     return                   	RETURN	
                                           ; exit point of _TIMER0_PWM_Init
                                           
                                           ;***
                                           ;  pBlock Stats: dbName = C
                                           ;***
                                           ;entry:  _TIMER2_INT_Init	;Function start
                                           ; 2 exit points
                                           ;has an exit
                                           ;; Starting pCode block
                                           _TIMER2_INT_Init	;Function start
                                           ; 2 exit points
                                           ;	.line	92; "MC32P7031_Demo_C.c"	TXCR = 0x08; //T0 T0 T2 Fcpu  T1 Fhosc T0
00045c   2d08     movai   0x8              	MOVAI	0x08
00045d   1fd8     movra   0xd8             	MOVRA	_TXCR
                                           ;	.line	94; "MC32P7031_Demo_C.c"	T2CR = 0xD4; // 8  
00045e   2dd4     movai   0xd4             	MOVAI	0xd4
00045f   1fec     movra   0xec             	MOVRA	_T2CR
                                           ;	.line	95; "MC32P7031_Demo_C.c"	T2C = 256 - 125;
000460   2d83     movai   0x83             	MOVAI	0x83
000461   1fed     movra   0xed             	MOVRA	_T2C
                                           ;	.line	96; "MC32P7031_Demo_C.c"	T2D = 256 - 125; //1ms
000462   2d83     movai   0x83             	MOVAI	0x83
000463   1fee     movra   0xee             	MOVRA	_T2D
                                           ;	.line	97; "MC32P7031_Demo_C.c"	T2IF = 0;
000464   44c8     bclr    0xc8, 0x4        	BCLR	_INTFbits,4
                                           ;	.line	98; "MC32P7031_Demo_C.c"	T2IE = 1;
000465   4cc9     bset    0xc9, 0x4        	BSET	_INTEbits,4
                                           ;	.line	99; "MC32P7031_Demo_C.c"	}
000466   0e00     return                   	RETURN	
                                           ; exit point of _TIMER2_INT_Init
                                           
                                           ;***
                                           ;  pBlock Stats: dbName = C
                                           ;***
                                           ;entry:  _IO_Init	;Function start
                                           ; 2 exit points
                                           ;has an exit
                                           ;; Starting pCode block
                                           _IO_Init	;Function start
                                           ; 2 exit points
                                           ;	.line	60; "MC32P7031_Demo_C.c"	IOP0 = 0x00; //io
000467   2bd0     clrr    0xd0             	CLRR	_IOP0
                                           ;	.line	61; "MC32P7031_Demo_C.c"	OEP0 = 0xfD; //io 1:out  0:in
000468   2dfd     movai   0xfd             	MOVAI	0xfd
000469   1fb8     movra   0xb8             	MOVRA	_OEP0
                                           ;	.line	62; "MC32P7031_Demo_C.c"	PUP0 = 0x02; //io   1:enable  0:disable
00046a   2d02     movai   0x2              	MOVAI	0x02
00046b   1fe0     movra   0xe0             	MOVRA	_PUP0
                                           ;	.line	70; "MC32P7031_Demo_C.c"	IOP4 = 0x00; //io
00046c   2bd4     clrr    0xd4             	CLRR	_IOP4
                                           ;	.line	71; "MC32P7031_Demo_C.c"	OEP4 = 0xe7;  //io
00046d   2de7     movai   0xe7             	MOVAI	0xe7
00046e   1fc4     movra   0xc4             	MOVRA	_OEP4
                                           ;	.line	72; "MC32P7031_Demo_C.c"	PUP4 = 0x00;  //io   1:enable  0:disable
00046f   2be4     clrr    0xe4             	CLRR	_PUP4
                                           ;	.line	73; "MC32P7031_Demo_C.c"	ANSEL = 0x10; //io  1:  0:io
000470   2d10     movai   0x10             	MOVAI	0x10
000471   1fae     movra   0xae             	MOVRA	_ANSEL
                                           ;	.line	79; "MC32P7031_Demo_C.c"	IOP5 = 0x00; //io
000472   2bd5     clrr    0xd5             	CLRR	_IOP5
                                           ;	.line	80; "MC32P7031_Demo_C.c"	OEP5 = 0xff; //io 1:out  0:in
000473   2dff     movai   0xff             	MOVAI	0xff
000474   1fc5     movra   0xc5             	MOVRA	_OEP5
                                           ;	.line	81; "MC32P7031_Demo_C.c"	PUP5 = 0x00; //io   1:enable  0:disable
000475   2be5     clrr    0xe5             	CLRR	_PUP5
                                           ;	.line	82; "MC32P7031_Demo_C.c"	}
000476   0e00     return                   	RETURN	
                                           ; exit point of _IO_Init
                                           
                                           ;***
                                           ;  pBlock Stats: dbName = C
                                           ;***
                                           ;entry:  _CLR_RAM	;Function start
                                           ; 2 exit points
                                           ;has an exit
                                           ;; Starting pCode block
                                           _CLR_RAM	;Function start
                                           ; 2 exit points
                                           ;	.line	44; "MC32P7031_Demo_C.c"	__endasm;
000477   2d7f     movai   0x7f             	movai	0x7F
000478   1f83     movra   0x83             	movra	FSR0
000479   2b84     clrr    0x84             	clrr	FSR1
00047a   2be7     clrr    0xe7             	clrr	INDF
00047b   2683     djzr    0x83             	DJZR	FSR0
00047c   847a     goto    0x47a            	goto	$ -2
00047d   2be7     clrr    0xe7             	clrr	INDF
                                           	
                                           ;	.line	45; "MC32P7031_Demo_C.c"	}
00047e   0e00     return                   	RETURN	
                                           ; exit point of _CLR_RAM
                                           
                                           
                                           ;	code size estimation:
                                           ;	 1134+    0 =  1134 instructions ( 2268 byte)
                                           
                                           	end


MEMORY USAGE MAP ('X' = Used,  '-' = Unused)

0000 : XX-------------- XXXXXXXXXXXXXXXX XXXXXXXXXXXXXXXX XXXXXXXXXXXXXXXX
0040 : XXXXXXXXXXXXXXXX XXXXXXXXXXXXXXXX XXXXXXXXXXXXXXXX XXXXXXXXXXXXXXXX
0080 : XXXXXXXXXXXXXXXX XXXXXXXXXXXXXXXX XXXXXXXXXXXXXXXX XXXXXXXXXXXXXXXX
00C0 : XXXXXXXXXXXXXXXX XXXXXXXXXXXXXXXX XXXXXXXXXXXXXXXX XXXXXXXXXXXXXXXX
0100 : XXXXXXXXXXXXXXXX XXXXXXXXXXXXXXXX XXXXXXXXXXXXXXXX XXXXXXXXXXXXXXXX
0140 : XXXXXXXXXXXXXXXX XXXXXXXXXXXXXXXX XXXXXXXXXXXXXXXX XXXXXXXXXXXXXXXX
0180 : XXXXXXXXXXXXXXXX XXXXXXXXXXXXXXXX XXXXXXXXXXXXXXXX XXXXXXXXXXXXXXXX
01C0 : XXXXXXXXXXXXXXXX XXXXXXXXXXXXXXXX XXXXXXXXXXXXXXXX XXXXXXXXXXXXXXXX
0200 : XXXXXXXXXXXXXXXX XXXXXXXXXXXXXXXX XXXXXXXXXXXXXXXX XXXXXXXXXXXXXXXX
0240 : XXXXXXXXXXXXXXXX XXXXXXXXXXXXXXXX XXXXXXXXXXXXXXXX XXXXXXXXXXXXXXXX
0280 : XXXXXXXXXXXXXXXX XXXXXXXXXXXXXXXX XXXXXXXXXXXXXXXX XXXXXXXXXXXXXXXX
02C0 : XXXXXXXXXXXXXXXX XXXXXXXXXXXXXXXX XXXXXXXXXXXXXXXX XXXXXXXXXXXXXXXX
0300 : XXXXXXXXXXXXXXXX XXXXXXXXXXXXXXXX XXXXXXXXXXXXXXXX XXXXXXXXXXXXXXXX
0340 : XXXXXXXXXXXXXXXX XXXXXXXXXXXXXXXX XXXXXXXXXXXXXXXX XXXXXXXXXXXXXXXX
0380 : XXXXXXXXXXXXXXXX XXXXXXXXXXXXXXXX XXXXXXXXXXXXXXXX XXXXXXXXXXXXXXXX
03C0 : XXXXXXXXXXXXXXXX XXXXXXXXXXXXXXXX XXXXXXXXXXXXXXXX XXXXXXXXXXXXXXXX
0400 : XXXXXXXXXXXXXXXX XXXXXXXXXXXXXXXX XXXXXXXXXXXXXXXX XXXXXXXXXXXXXXXX
0440 : XXXXXXXXXXXXXXXX XXXXXXXXXXXXXXXX XXXXXXXXXXXXXXXX XXXXXXXXXXXXXXXX
0480 : XXXXXXXXXXXXXXXX XXXXXXXXXXXXXXXX XXXXXXXXXXXXXXXX XXXXXXXXXXXXXXXX
04C0 : XXXXXXXXXXXXXXXX XXXXXXXXXXXXXXXX XXXXXXXXXXXXXXXX XXXXXXXXXXXXXXXX
0500 : XXXXXXXXXXXXXXXX XXXXXXXXXXXXXXXX XXXXXXXXXXXXXXXX XXXXXXXXXXXXXXXX
0540 : XXXXXXXXXXXXXXXX XXXXXXXXXXXXXXXX XXXXXXXXXXXXXXXX XXXXXXXXXXXXXXXX
0580 : XXXXXXXXXXXXXXXX XXXXXXXXXXXXXXXX XXXXXXXXXXXXXXXX XXXXXXXXXXXXXXXX
05C0 : XXXXXXXXXXXXXXXX XXXXXXXXXXXXXXXX XXXXXXXXXXXXXXXX XXXXXXXXXXXXXXXX
0600 : XXXXXXXXXXXXXXXX XXXXXXXXXXXXXXXX XXXXXXXXXXXXXXXX XXXXXXXXXXXXXXXX
0640 : XXXXXXXXXXXXXXXX XXXXXXXXXXXXXXXX XXXXXXXXXXXXXXXX XXXXXXXXXXXXXXXX
0680 : XXXXXXXXXXXXXXXX XXXXXXXXXXXXXXXX XXXXXXXXXXXXXXXX XXXXXXXXXXXXXXXX
06C0 : XXXXXXXXXXXXXXXX XXXXXXXXXXXXXXXX XXXXXXXXXXXXXXXX XXXXXXXXXXXXXXXX
0700 : XXXXXXXXXXXXXXXX XXXXXXXXXXXXXXXX XXXXXXXXXXXXXXXX XXXXXXXXXXXXXXXX
0740 : XXXXXXXXXXXXXXXX XXXXXXXXXXXXXXXX XXXXXXXXXXXXXXXX XXXXXXXXXXXXXXXX
0780 : XXXXXXXXXXXXXXXX XXXXXXXXXXXXXXXX XXXXXXXXXXXXXXXX XXXXXXXXXXXXXXXX
07C0 : XXXXXXXXXXXXXXXX XXXXXXXXXXXXXXXX XXXXXXXXXXXXXXXX XXXXXXXXXXXXXXXX
0800 : XXXXXXXXXXXXXXXX XXXXXXXXXXXXXXXX XXXXXXXXXXXXXXXX XXXXXXXXXXXXXXXX
0840 : XXXXXXXXXXXXXXXX XXXXXXXXXXXXXXXX XXXXXXXXXXXXXXXX XXXXXXXXXXXXXXXX
0880 : XXXXXXXXXXXXXXXX XXXXXXXXXXXXXXXX XXXXXXXXXXXXXXXX XXXXXXXXXXXXXXXX
08C0 : XXXXXXXXXXXXXXXX XXXXXXXXXXXXXXXX XXXXXXXXXXXXXXXX XXXXXXXXXXXXXXXX
0900 : XXXXXXXXXXXXXXXX XXXXXXXXXXXXXXXX XXXXXXXXXXXXXXXX XXXXXXXXXX------

All other memory blocks unused.

Program Memory Words Used:  1174

